	.cpu arm1136jf-s
	.fpu softvfp
	.eabi_attribute 20, 1
	.eabi_attribute 21, 1
	.eabi_attribute 23, 3
	.eabi_attribute 24, 1
	.eabi_attribute 25, 1
	.eabi_attribute 26, 2
	.eabi_attribute 30, 2
	.eabi_attribute 34, 1
	.eabi_attribute 18, 4
	.file	"kernel_final.c"
	.text
.Ltext0:
	.cfi_sections	.debug_frame
	.align	2
	.type	putEncodedChar, %function
putEncodedChar:
.LFB404:
	.file 1 "/home/zj/seL4/myseL4/kernel/src/arch/arm/machine/capdl.c"
	.loc 1 62 0
	.cfi_startproc
	@ args = 0, pretend = 0, frame = 0
	@ frame_needed = 0, uses_anonymous_args = 0
	@ link register save eliminated.
.LVL0:
	.loc 1 63 0
	cmp	r0, #187
.LBB2732:
.LBB2733:
	.file 2 "/home/zj/seL4/myseL4/kernel/src/plat/imx31/machine/io.c"
	.loc 2 55 0
	mvn	r1, #1032192
.LBE2733:
.LBE2732:
	.loc 1 63 0
	beq	.L37
	cmp	r0, #255
	beq	.L38
	cmp	r0, #170
	beq	.L39
	.loc 1 77 0
	cmp	r0, #19
	bhi	.L41
.L40:
.LBB2736:
.LBB2737:
	.loc 2 55 0
	ldr	r3, [r1, #-3947]
	mvn	r2, #1032192
	tst	r3, #8192
	beq	.L40
.LBE2737:
.LBE2736:
	.loc 1 79 0
	add	r0, r0, #20
.LVL1:
.LBB2739:
.LBB2740:
	.loc 2 55 0
	mov	r1, r2
.LBE2740:
.LBE2739:
	.loc 1 79 0
	uxtb	r0, r0
.LVL2:
.LBB2742:
.LBB2738:
	.loc 2 57 0
	mov	r3, #170
	str	r3, [r2, #-4031]
.L12:
.LBE2738:
.LBE2742:
.LBB2743:
.LBB2741:
	.loc 2 55 0
	ldr	r3, [r1, #-3947]
	mvn	r2, #1032192
	tst	r3, #8192
	beq	.L12
.LVL3:
.L61:
.LBE2741:
.LBE2743:
.LBB2744:
.LBB2745:
	.loc 2 57 0
	str	r0, [r2, #-4031]
	bx	lr
.LVL4:
.L37:
.LBE2745:
.LBE2744:
.LBB2747:
.LBB2734:
	.loc 2 55 0
	ldr	r3, [r1, #-3947]
	mvn	r2, #1032192
	tst	r3, #8192
	beq	.L37
.LBE2734:
.LBE2747:
.LBB2748:
.LBB2749:
	mov	r1, r2
.LBE2749:
.LBE2748:
.LBB2751:
.LBB2735:
	.loc 2 57 0
	mov	r3, #170
	str	r3, [r2, #-4031]
.LVL5:
.L9:
.LBE2735:
.LBE2751:
.LBB2752:
.LBB2750:
	.loc 2 55 0
	ldr	r3, [r1, #-3947]
	mvn	r2, #1032192
	tst	r3, #8192
	beq	.L9
	.loc 2 57 0
	mov	r3, #162
	str	r3, [r2, #-4031]
	bx	lr
.LVL6:
.L39:
.LBE2750:
.LBE2752:
.LBB2753:
.LBB2754:
	.loc 2 55 0
	ldr	r3, [r1, #-3947]
	mvn	r2, #1032192
	tst	r3, #8192
	beq	.L39
.LBE2754:
.LBE2753:
.LBB2756:
.LBB2757:
	mov	r1, r2
.LBE2757:
.LBE2756:
.LBB2759:
.LBB2755:
	.loc 2 57 0
	mov	r3, #170
	str	r3, [r2, #-4031]
.LVL7:
.L6:
.LBE2755:
.LBE2759:
.LBB2760:
.LBB2758:
	.loc 2 55 0
	ldr	r3, [r1, #-3947]
	mvn	r2, #1032192
	tst	r3, #8192
	beq	.L6
	.loc 2 57 0
	mov	r3, #161
	str	r3, [r2, #-4031]
	bx	lr
.LVL8:
.L38:
.LBE2758:
.LBE2760:
.LBB2761:
.LBB2762:
	.loc 2 55 0
	ldr	r3, [r1, #-3947]
	mvn	r2, #1032192
	tst	r3, #8192
	beq	.L38
.LBE2762:
.LBE2761:
.LBB2764:
.LBB2765:
	mov	r1, r2
.LBE2765:
.LBE2764:
.LBB2767:
.LBB2763:
	.loc 2 57 0
	mov	r3, #170
	str	r3, [r2, #-4031]
.LVL9:
.L8:
.LBE2763:
.LBE2767:
.LBB2768:
.LBB2766:
	.loc 2 55 0
	ldr	r3, [r1, #-3947]
	mvn	r2, #1032192
	tst	r3, #8192
	beq	.L8
	.loc 2 57 0
	mov	r3, #160
	str	r3, [r2, #-4031]
	bx	lr
.LVL10:
.L41:
.LBE2766:
.LBE2768:
.LBB2769:
.LBB2746:
	.loc 2 55 0
	ldr	r3, [r1, #-3947]
	mvn	r2, #1032192
	tst	r3, #8192
	bne	.L61
	ldr	r3, [r1, #-3947]
	mvn	r2, #1032192
	tst	r3, #8192
	beq	.L41
	b	.L61
.LBE2746:
.LBE2769:
	.cfi_endproc
.LFE404:
	.size	putEncodedChar, .-putEncodedChar
	.align	2
	.type	sendWord, %function
sendWord:
.LFB406:
	.loc 1 109 0
	.cfi_startproc
	@ args = 0, pretend = 0, frame = 0
	@ frame_needed = 0, uses_anonymous_args = 0
.LVL11:
	stmfd	sp!, {r4, lr}
.LCFI0:
	.cfi_def_cfa_offset 8
	.cfi_offset 4, -8
	.cfi_offset 14, -4
	.loc 1 109 0
	mov	r4, r0
	.loc 1 110 0
	uxtb	r0, r0
.LVL12:
	bl	putEncodedChar
.LVL13:
	.loc 1 111 0
	mov	r0, r4, lsr #8
	uxtb	r0, r0
	bl	putEncodedChar
.LVL14:
	.loc 1 112 0
	mov	r0, r4, lsr #16
	uxtb	r0, r0
	bl	putEncodedChar
.LVL15:
	.loc 1 113 0
	mov	r0, r4, lsr #24
	.loc 1 114 0
	ldmfd	sp!, {r4, lr}
	.loc 1 113 0
	b	putEncodedChar
.LVL16:
	.cfi_endproc
.LFE406:
	.size	sendWord, .-sendWord
	.align	2
	.type	getDecodedChar, %function
getDecodedChar:
.LFB403:
	.loc 1 28 0
	.cfi_startproc
	@ args = 0, pretend = 0, frame = 0
	@ frame_needed = 0, uses_anonymous_args = 0
	@ link register save eliminated.
.LVL17:
.LBB2778:
.LBB2779:
	.loc 2 62 0
	mvn	r1, #1032192
.L66:
	ldr	r3, [r1, #-3947]
	mvn	r2, #1032192
	tst	r3, #512
	beq	.L66
	.loc 2 64 0
	ldr	r3, [r2, #-4095]
	uxtb	r3, r3
.LBE2779:
.LBE2778:
	.loc 1 31 0
	cmp	r3, #255
	beq	.L75
	.loc 1 34 0
	cmp	r3, #170
	beq	.L82
.L68:
	.loc 1 56 0
	strb	r3, [r0, #0]
.L88:
	.loc 1 57 0
	mov	r0, #0
.LVL18:
	bx	lr
.LVL19:
.L82:
.LBB2780:
.LBB2781:
.LBB2782:
.LBB2783:
	.loc 2 62 0
	ldr	r3, [r2, #-3947]
	mvn	r1, #1032192
	tst	r3, #512
	beq	.L82
	.loc 2 64 0
	ldr	r3, [r1, #-4095]
	uxtb	r3, r3
.LBE2783:
.LBE2782:
	.loc 1 36 0
	cmp	r3, #255
	beq	.L75
	.loc 1 39 0
	cmp	r3, #161
	beq	.L73
	cmp	r3, #162
	beq	.L74
	cmp	r3, #160
	beq	.L89
	.loc 1 50 0
	sub	r3, r3, #20
	uxtb	r3, r3
	cmp	r3, #19
	bhi	.L88
	b	.L68
.L75:
.LBE2781:
.LBE2780:
	.loc 1 32 0
	mov	r0, #1
.LVL20:
	.loc 1 59 0
	bx	lr
.LVL21:
.L74:
.LBB2785:
.LBB2784:
	.loc 1 47 0
	mvn	r3, #68
	strb	r3, [r0, #0]
	.loc 1 54 0
	mov	r0, #0
.LVL22:
	bx	lr
.LVL23:
.L73:
	.loc 1 41 0
	mvn	r3, #85
	strb	r3, [r0, #0]
	.loc 1 54 0
	mov	r0, #0
.LVL24:
	bx	lr
.LVL25:
.L89:
	.loc 1 44 0
	mvn	r3, #0
	strb	r3, [r0, #0]
	.loc 1 54 0
	mov	r0, #0
.LVL26:
	bx	lr
.LBE2784:
.LBE2785:
	.cfi_endproc
.LFE403:
	.size	getDecodedChar, .-getDecodedChar
	.align	2
	.type	getArg32, %function
getArg32:
.LFB405:
	.loc 1 87 0
	.cfi_startproc
	@ args = 0, pretend = 0, frame = 8
	@ frame_needed = 0, uses_anonymous_args = 0
.LVL27:
	stmfd	sp!, {r4, lr}
.LCFI1:
	.cfi_def_cfa_offset 8
	.cfi_offset 4, -8
	.cfi_offset 14, -4
	sub	sp, sp, #8
.LCFI2:
	.cfi_def_cfa_offset 16
	.loc 1 88 0
	mov	r3, #0
	.loc 1 87 0
	mov	r4, r0
	.loc 1 92 0
	add	r0, sp, #4
.LVL28:
	.loc 1 88 0
	strb	r3, [sp, #4]
.LVL29:
	.loc 1 89 0
	strb	r3, [sp, #5]
.LVL30:
	.loc 1 90 0
	strb	r3, [sp, #6]
.LVL31:
	.loc 1 91 0
	strb	r3, [sp, #7]
.LVL32:
	.loc 1 92 0
	bl	getDecodedChar
.LVL33:
	cmp	r0, #0
	beq	.L91
.L93:
	.loc 1 93 0
	mov	r0, #1
.LVL34:
.L92:
	.loc 1 106 0
	add	sp, sp, #8
	ldmfd	sp!, {r4, pc}
.LVL35:
.L91:
	.loc 1 95 0
	add	r0, sp, #5
	bl	getDecodedChar
.LVL36:
	cmp	r0, #0
	bne	.L93
	.loc 1 98 0
	add	r0, sp, #6
	bl	getDecodedChar
.LVL37:
	cmp	r0, #0
	bne	.L93
	.loc 1 101 0
	add	r0, sp, #7
	bl	getDecodedChar
.LVL38:
	cmp	r0, #0
	bne	.L93
	.loc 1 104 0
	ldrb	r3, [sp, #5]	@ zero_extendqisi2
.LVL39:
	ldrb	ip, [sp, #4]	@ zero_extendqisi2
.LVL40:
	ldrb	r1, [sp, #7]	@ zero_extendqisi2
.LVL41:
	ldrb	r2, [sp, #6]	@ zero_extendqisi2
.LVL42:
	mov	r3, r3, asl #16
.LVL43:
	orr	r3, r3, ip, asl #24
.LVL44:
	orr	r3, r3, r1
.LVL45:
	orr	r3, r3, r2, asl #8
.LVL46:
	str	r3, [r4, #0]
	b	.L92
	.cfi_endproc
.LFE405:
	.size	getArg32, .-getArg32
	.align	2
	.global	clean_D_PoU
	.type	clean_D_PoU, %function
clean_D_PoU:
.LFB287:
	.file 3 "/home/zj/seL4/myseL4/kernel/src/arch/arm/armv/armv6/cache.c"
	.loc 3 16 0
	.cfi_startproc
	@ args = 0, pretend = 0, frame = 0
	@ frame_needed = 0, uses_anonymous_args = 0
	@ link register save eliminated.
	.loc 3 18 0
	mov	r3, #0
#APP
@ 18 "/home/zj/seL4/myseL4/kernel/src/arch/arm/armv/armv6/cache.c" 1
	mcr p15, 0, r3, c7, c10, 0
@ 0 "" 2
	bx	lr
	.cfi_endproc
.LFE287:
	.size	clean_D_PoU, .-clean_D_PoU
	.align	2
	.global	cleanInvalidate_D_PoC
	.type	cleanInvalidate_D_PoC, %function
cleanInvalidate_D_PoC:
.LFB288:
	.loc 3 24 0
	.cfi_startproc
	@ args = 0, pretend = 0, frame = 0
	@ frame_needed = 0, uses_anonymous_args = 0
	@ link register save eliminated.
	.loc 3 26 0
	mov	r3, #0
#APP
@ 26 "/home/zj/seL4/myseL4/kernel/src/arch/arm/armv/armv6/cache.c" 1
	mcr p15, 0, r3, c7, c14, 0
@ 0 "" 2
	bx	lr
	.cfi_endproc
.LFE288:
	.size	cleanInvalidate_D_PoC, .-cleanInvalidate_D_PoC
	.align	2
	.global	setHardwareASID
	.type	setHardwareASID, %function
setHardwareASID:
.LFB290:
	.file 4 "/home/zj/seL4/myseL4/kernel/src/arch/arm/armv/armv6/context_switch.c"
	.loc 4 21 0
	.cfi_startproc
	@ args = 0, pretend = 0, frame = 0
	@ frame_needed = 0, uses_anonymous_args = 0
	@ link register save eliminated.
.LVL47:
.LBB2786:
.LBB2787:
	.file 5 "/home/zj/seL4/myseL4/kernel/include/arch/arm/armv/armv6/armv/machine.h"
	.loc 5 18 0
	mov	r3, #0
#APP
@ 18 "/home/zj/seL4/myseL4/kernel/include/arch/arm/armv/armv6/armv/machine.h" 1
	mcr p15, 0, r3, c7, c10, 4
@ 0 "" 2
.LBE2787:
.LBE2786:
.LBB2788:
.LBB2789:
	.file 6 "/home/zj/seL4/myseL4/kernel/include/arch/arm/arch/machine.h"
	.loc 6 116 0
#APP
@ 116 "/home/zj/seL4/myseL4/kernel/include/arch/arm/arch/machine.h" 1
	mcr p15, 0, r3, c7, c5, 6
@ 0 "" 2
.LVL48:
.LBE2789:
.LBE2788:
.LBB2790:
.LBB2791:
	.loc 6 123 0
#APP
@ 123 "/home/zj/seL4/myseL4/kernel/include/arch/arm/arch/machine.h" 1
	mcr p15, 0, r0, c13, c0, 1
@ 0 "" 2
.LBB2792:
.LBB2793:
	.loc 5 32 0
#APP
@ 32 "/home/zj/seL4/myseL4/kernel/include/arch/arm/armv/armv6/armv/machine.h" 1
	mcr p15, 0, r3, c7, c5, 4
@ 0 "" 2
	bx	lr
.LBE2793:
.LBE2792:
.LBE2791:
.LBE2790:
	.cfi_endproc
.LFE290:
	.size	setHardwareASID, .-setHardwareASID
	.align	2
	.global	armv_init_user_access
	.type	armv_init_user_access, %function
armv_init_user_access:
.LFB291:
	.file 7 "/home/zj/seL4/myseL4/kernel/src/arch/arm/armv/armv6/user_access.c"
	.loc 7 16 0
	.cfi_startproc
	@ args = 0, pretend = 0, frame = 0
	@ frame_needed = 0, uses_anonymous_args = 0
	@ link register save eliminated.
	bx	lr
	.cfi_endproc
.LFE291:
	.size	armv_init_user_access, .-armv_init_user_access
	.section	.boot.text,"ax",%progbits
	.align	2
	.global	Arch_configureIdleThread
	.type	Arch_configureIdleThread, %function
Arch_configureIdleThread:
.LFB327:
	.file 8 "/home/zj/seL4/myseL4/kernel/src/arch/arm/kernel/thread.c"
	.loc 8 28 0
	.cfi_startproc
	@ args = 0, pretend = 0, frame = 0
	@ frame_needed = 0, uses_anonymous_args = 0
	@ link register save eliminated.
.LVL49:
.LBB2794:
.LBB2795:
	.file 9 "/home/zj/seL4/myseL4/kernel/include/machine/registerset.h"
	.loc 9 21 0
	ldr	r3, .L99
.LBE2795:
.LBE2794:
.LBB2797:
.LBB2798:
	mov	r2, #83
	str	r2, [r0, #64]
.LVL50:
.LBE2798:
.LBE2797:
.LBB2799:
.LBB2796:
	str	r3, [r0, #60]
	bx	lr
.L100:
	.align	2
.L99:
	.word	idle_thread
.LBE2796:
.LBE2799:
	.cfi_endproc
.LFE327:
	.size	Arch_configureIdleThread, .-Arch_configureIdleThread
	.text
	.align	2
	.global	Arch_switchToIdleThread
	.type	Arch_switchToIdleThread, %function
Arch_switchToIdleThread:
.LFB328:
	.loc 8 35 0
	.cfi_startproc
	@ args = 0, pretend = 0, frame = 0
	@ frame_needed = 0, uses_anonymous_args = 0
	@ link register save eliminated.
	.loc 8 36 0
	ldr	r3, .L102
	mov	r2, #0
	str	r2, [r3, #0]
	bx	lr
.L103:
	.align	2
.L102:
	.word	.LANCHOR0
	.cfi_endproc
.LFE328:
	.size	Arch_switchToIdleThread, .-Arch_switchToIdleThread
	.align	2
	.global	Arch_activateIdleThread
	.type	Arch_activateIdleThread, %function
Arch_activateIdleThread:
.LFB329:
	.loc 8 41 0
	.cfi_startproc
	@ args = 0, pretend = 0, frame = 0
	@ frame_needed = 0, uses_anonymous_args = 0
	@ link register save eliminated.
.LVL51:
	bx	lr
	.cfi_endproc
.LFE329:
	.size	Arch_activateIdleThread, .-Arch_activateIdleThread
	.section	.boot.text
	.align	2
	.global	activate_global_pd
	.type	activate_global_pd, %function
activate_global_pd:
.LFB335:
	.file 10 "/home/zj/seL4/myseL4/kernel/src/arch/arm/kernel/vspace.c"
	.loc 10 305 0
	.cfi_startproc
	@ args = 0, pretend = 0, frame = 0
	@ frame_needed = 0, uses_anonymous_args = 0
	.loc 10 305 0
	stmfd	sp!, {r3, lr}
.LCFI3:
	.cfi_def_cfa_offset 8
	.cfi_offset 3, -8
	.cfi_offset 14, -4
.LBB2800:
.LBB2801:
.LBB2802:
	.loc 5 18 0
	mov	r3, #0
#APP
@ 18 "/home/zj/seL4/myseL4/kernel/include/arch/arm/armv/armv6/armv/machine.h" 1
	mcr p15, 0, r3, c7, c10, 4
@ 0 "" 2
.LBE2802:
.LBE2801:
.LBB2803:
.LBB2804:
	.loc 3 26 0
#APP
@ 26 "/home/zj/seL4/myseL4/kernel/src/arch/arm/armv/armv6/cache.c" 1
	mcr p15, 0, r3, c7, c14, 0
@ 0 "" 2
.LBE2804:
.LBE2803:
.LBB2805:
.LBB2806:
	.loc 5 18 0
#APP
@ 18 "/home/zj/seL4/myseL4/kernel/include/arch/arm/armv/armv6/armv/machine.h" 1
	mcr p15, 0, r3, c7, c10, 4
@ 0 "" 2
.LBE2806:
.LBE2805:
.LBB2807:
.LBB2808:
	.loc 6 247 0
#APP
@ 247 "/home/zj/seL4/myseL4/kernel/include/arch/arm/arch/machine.h" 1
	mcr p15, 0, r3, c7, c5, 0
@ 0 "" 2
.LBB2809:
.LBB2810:
	.loc 5 32 0
#APP
@ 32 "/home/zj/seL4/myseL4/kernel/include/arch/arm/armv/armv6/armv/machine.h" 1
	mcr p15, 0, r3, c7, c5, 4
@ 0 "" 2
.LBE2810:
.LBE2809:
.LBE2808:
.LBE2807:
.LBB2811:
.LBB2812:
	.loc 5 18 0
#APP
@ 18 "/home/zj/seL4/myseL4/kernel/include/arch/arm/armv/armv6/armv/machine.h" 1
	mcr p15, 0, r3, c7, c10, 4
@ 0 "" 2
.LVL52:
.LBE2812:
.LBE2811:
.LBE2800:
.LBB2813:
.LBB2814:
.LBB2815:
.LBB2816:
#APP
@ 18 "/home/zj/seL4/myseL4/kernel/include/arch/arm/armv/armv6/armv/machine.h" 1
	mcr p15, 0, r3, c7, c10, 4
@ 0 "" 2
.LBE2816:
.LBE2815:
.LBE2814:
.LBE2813:
.LBB2820:
.LBB2821:
	.file 11 "/home/zj/seL4/myseL4/kernel/include/plat/imx31/plat/machine/hardware.h"
	.loc 11 39 0
	ldr	r3, .L106
.LBE2821:
.LBE2820:
.LBB2822:
.LBB2819:
	.loc 6 140 0
	bic	r3, r3, #8128
	bic	r3, r3, #63
	orr	r3, r3, #24
	.loc 6 139 0
#APP
@ 139 "/home/zj/seL4/myseL4/kernel/include/arch/arm/arch/machine.h" 1
	mcr p15, 0, r3, c2, c0, 0
@ 0 "" 2
.LBB2817:
.LBB2818:
	.loc 5 32 0
	mov	r3, #0
#APP
@ 32 "/home/zj/seL4/myseL4/kernel/include/arch/arm/armv/armv6/armv/machine.h" 1
	mcr p15, 0, r3, c7, c5, 4
@ 0 "" 2
.LBE2818:
.LBE2817:
.LBE2819:
.LBE2822:
.LBB2823:
.LBB2824:
.LBB2825:
.LBB2826:
	.loc 5 18 0
#APP
@ 18 "/home/zj/seL4/myseL4/kernel/include/arch/arm/armv/armv6/armv/machine.h" 1
	mcr p15, 0, r3, c7, c10, 4
@ 0 "" 2
.LBE2826:
.LBE2825:
	.loc 6 150 0
#APP
@ 150 "/home/zj/seL4/myseL4/kernel/include/arch/arm/arch/machine.h" 1
	mcr p15, 0, r3, c8, c7, 0
@ 0 "" 2
.LBB2827:
.LBB2828:
	.loc 5 18 0
#APP
@ 18 "/home/zj/seL4/myseL4/kernel/include/arch/arm/armv/armv6/armv/machine.h" 1
	mcr p15, 0, r3, c7, c10, 4
@ 0 "" 2
.LBE2828:
.LBE2827:
.LBB2829:
.LBB2830:
	.loc 5 32 0
#APP
@ 32 "/home/zj/seL4/myseL4/kernel/include/arch/arm/armv/armv6/armv/machine.h" 1
	mcr p15, 0, r3, c7, c5, 4
@ 0 "" 2
.LBE2830:
.LBE2829:
.LBE2824:
.LBE2823:
	.loc 10 312 0
	mov	r0, #-268435456
	bl	lockTLBEntry
.LVL53:
	.loc 10 313 0
	ldr	r0, .L106+4
	.loc 10 314 0
	ldmfd	sp!, {r3, lr}
	.loc 10 313 0
	b	lockTLBEntry
.LVL54:
.L107:
	.align	2
.L106:
	.word	.LANCHOR1-1879048176
	.word	-65536
	.cfi_endproc
.LFE335:
	.size	activate_global_pd, .-activate_global_pd
	.text
	.align	2
	.global	copyGlobalMappings
	.type	copyGlobalMappings, %function
copyGlobalMappings:
.LFB337:
	.loc 10 328 0
	.cfi_startproc
	@ args = 0, pretend = 0, frame = 0
	@ frame_needed = 0, uses_anonymous_args = 0
	@ link register save eliminated.
.LVL55:
	.loc 10 328 0
	ldr	r2, .L114
	mov	r3, #3840
	ldr	ip, .L114+4
	b	.L109
.LVL56:
.L110:
	add	r3, r3, #1
	add	r2, r2, #1
.L109:
	.loc 10 333 0
	cmp	r3, #4080
	beq	.L110
	.loc 10 334 0
	ldr	r1, [ip, r3, asl #2]
	.loc 10 332 0
	cmp	r2, #4096
	.loc 10 334 0
	str	r1, [r0, r3, asl #2]
.LVL57:
	.loc 10 332 0
	bne	.L110
	.loc 10 337 0
	bx	lr
.L115:
	.align	2
.L114:
	.word	3841
	.word	.LANCHOR1+16
	.cfi_endproc
.LFE337:
	.size	copyGlobalMappings, .-copyGlobalMappings
	.align	2
	.global	findPDForASID
	.type	findPDForASID, %function
findPDForASID:
.LFB339:
	.loc 10 370 0
	.cfi_startproc
	@ args = 0, pretend = 0, frame = 0
	@ frame_needed = 0, uses_anonymous_args = 0
	@ link register save eliminated.
.LVL58:
	.loc 10 375 0
	ldr	r3, .L121
	mov	r2, r1, lsr #10
	ldr	r3, [r3, r2, asl #2]
.LVL59:
	.loc 10 376 0
	cmp	r3, #0
	beq	.L120
	.loc 10 384 0
	mov	r1, r1, asl #22
.LVL60:
	ldr	r3, [r3, r1, lsr #20]
.LVL61:
	.loc 10 385 0
	cmp	r3, #0
	beq	.L120
.LVL62:
	.loc 10 395 0
	mov	r2, #0
.LVL63:
	stmia	r0, {r2, r3}
	.loc 10 396 0
	bx	lr
.LVL64:
.L120:
	.loc 10 386 0
	ldr	r2, .L121+4
.LVL65:
	.loc 10 390 0
	mov	r1, #2
	str	r3, [r0, #4]
	.loc 10 386 0
	str	r3, [r2, #0]
	str	r3, [r2, #4]
.LVL66:
	.loc 10 390 0
	str	r1, [r0, #0]
	bx	lr
.L122:
	.align	2
.L121:
	.word	armKSASIDTable
	.word	current_lookup_fault
	.cfi_endproc
.LFE339:
	.size	findPDForASID, .-findPDForASID
	.align	2
	.global	lookupPDSlot
	.type	lookupPDSlot, %function
lookupPDSlot:
.LFB342:
	.loc 10 437 0
	.cfi_startproc
	@ args = 0, pretend = 0, frame = 0
	@ frame_needed = 0, uses_anonymous_args = 0
	@ link register save eliminated.
.LVL67:
	.loc 10 440 0
	mov	r1, r1, lsr #20
.LVL68:
	.loc 10 442 0
	add	r0, r0, r1, asl #2
.LVL69:
	bx	lr
	.cfi_endproc
.LFE342:
	.size	lookupPDSlot, .-lookupPDSlot
	.align	2
	.global	maskVMRights
	.type	maskVMRights, %function
maskVMRights:
.LFB356:
	.loc 10 776 0
	.cfi_startproc
	@ args = 0, pretend = 0, frame = 0
	@ frame_needed = 0, uses_anonymous_args = 0
	@ link register save eliminated.
.LVL70:
	.loc 10 777 0
	cmp	r0, #0
	bxeq	lr
	.loc 10 780 0
	cmp	r0, #2
	beq	.L135
	.loc 10 784 0
	cmp	r0, #3
	beq	.L136
.L131:
	.loc 10 792 0
	mov	r0, #1
.LVL71:
	.loc 10 793 0
	bx	lr
.LVL72:
.L135:
	.loc 10 780 0 discriminator 1
	tst	r1, #2
	beq	.L131
.LVL73:
.L127:
	.loc 10 782 0
	mov	r0, #2
.LVL74:
	bx	lr
.LVL75:
.L136:
	.loc 10 784 0 discriminator 1
	tst	r1, #2
	beq	.L131
.LVL76:
	.loc 10 786 0
	tst	r1, #1
	beq	.L127
	bx	lr
	.cfi_endproc
.LFE356:
	.size	maskVMRights, .-maskVMRights
	.align	2
	.global	performPageTableInvocationMap
	.type	performPageTableInvocationMap, %function
performPageTableInvocationMap:
.LFB377:
	.loc 10 2023 0
	.cfi_startproc
	@ args = 4, pretend = 0, frame = 8
	@ frame_needed = 0, uses_anonymous_args = 0
	@ link register save eliminated.
.LVL77:
	str	r4, [sp, #-4]!
.LCFI4:
	.cfi_def_cfa_offset 4
	.cfi_offset 4, -4
	sub	sp, sp, #12
.LCFI5:
	.cfi_def_cfa_offset 16
	.loc 10 2023 0
	ldr	r4, [sp, #16]
	stmia	sp, {r0, r1}
	.loc 10 2024 0
	ldmia	sp, {r0, r1}
	stmia	r2, {r0, r1}
	.loc 10 2025 0
	str	r3, [r4, #0]
.LVL78:
.LBB2835:
.LBB2836:
	.loc 6 201 0
#APP
@ 201 "/home/zj/seL4/myseL4/kernel/include/arch/arm/arch/machine.h" 1
	mcr p15, 0, r4, c7, c10, 1
@ 0 "" 2
.LBB2837:
.LBB2838:
	.loc 5 25 0
	mov	r0, #0
#APP
@ 25 "/home/zj/seL4/myseL4/kernel/include/arch/arm/armv/armv6/armv/machine.h" 1
	mcr p15, 0, r0, c7, c10, 5
@ 0 "" 2
.LBE2838:
.LBE2837:
.LBE2836:
.LBE2835:
	.loc 10 2029 0
	add	sp, sp, #12
	ldmfd	sp!, {r4}
	bx	lr
	.cfi_endproc
.LFE377:
	.size	performPageTableInvocationMap, .-performPageTableInvocationMap
	.align	2
	.global	cleanInvalidateCacheRange_RAM
	.type	cleanInvalidateCacheRange_RAM, %function
cleanInvalidateCacheRange_RAM:
.LFB395:
	.file 12 "/home/zj/seL4/myseL4/kernel/src/arch/arm/machine/cache.c"
	.loc 12 33 0
	.cfi_startproc
	@ args = 0, pretend = 0, frame = 0
	@ frame_needed = 0, uses_anonymous_args = 0
	@ link register save eliminated.
.LVL79:
	stmfd	sp!, {r4, r5, r6}
.LCFI6:
	.cfi_def_cfa_offset 12
	.cfi_offset 4, -12
	.cfi_offset 5, -8
	.cfi_offset 6, -4
.LBB2839:
.LBB2840:
	.loc 12 25 0
	mov	r4, r1, lsr #5
	mov	r3, r0, lsr #5
.LVL80:
	add	r4, r4, #1
	cmp	r3, r4
	movcc	ip, r3
.LBB2841:
.LBB2842:
.LBB2843:
.LBB2844:
	.loc 5 25 0
	movcc	r6, #0
.LBE2844:
.LBE2843:
.LBE2842:
.LBE2841:
	.loc 12 25 0
	bcs	.L142
.LVL81:
.L139:
	.loc 12 26 0
	mov	r5, ip, asl #5
.LBB2848:
.LBB2847:
	.loc 6 186 0
#APP
@ 186 "/home/zj/seL4/myseL4/kernel/include/arch/arm/arch/machine.h" 1
	mcr p15, 0, r5, c7, c10, 1
@ 0 "" 2
.LBB2846:
.LBB2845:
	.loc 5 25 0
#APP
@ 25 "/home/zj/seL4/myseL4/kernel/include/arch/arm/armv/armv6/armv/machine.h" 1
	mcr p15, 0, r6, c7, c10, 5
@ 0 "" 2
.LBE2845:
.LBE2846:
.LBE2847:
.LBE2848:
	.loc 12 25 0
	add	ip, ip, #1
.LVL82:
	cmp	ip, r4
	bne	.L139
.LVL83:
.L142:
.LBE2840:
.LBE2839:
.LBB2849:
.LBB2850:
	.loc 5 18 0
	mov	ip, #0
#APP
@ 18 "/home/zj/seL4/myseL4/kernel/include/arch/arm/armv/armv6/armv/machine.h" 1
	mcr p15, 0, ip, c7, c10, 4
@ 0 "" 2
.LVL84:
.LBE2850:
.LBE2849:
	.loc 12 44 0
	rsb	r0, r0, r1
.LVL85:
	add	r0, r0, r2
.LVL86:
.LBB2851:
.LBB2852:
	.file 13 "/home/zj/seL4/myseL4/kernel/src/plat/imx31/machine/hardware.c"
	.loc 13 374 0
	mov	r2, r2, lsr #5
.LVL87:
	.loc 13 375 0
	mov	r0, r0, lsr #5
.LVL88:
	add	r0, r0, #1
	.loc 13 374 0
	cmp	r2, r0
	.loc 13 378 0
	mvncc	ip, #1036288
	.loc 13 374 0
	bcs	.L141
.LVL89:
.L147:
	.loc 13 377 0
	mov	r1, r2, asl #5
.LVL90:
	.loc 13 376 0
	add	r2, r2, #1
.LVL91:
	.loc 13 374 0
	cmp	r2, r0
	.loc 13 378 0
	str	r1, [ip, #-2063]
	.loc 13 374 0
	bne	.L147
.LVL92:
.L141:
.LBB2853:
.LBB2854:
	.loc 13 337 0
	mvn	r2, #1036288
.LVL93:
	mov	r1, #1
.LBE2854:
.LBE2853:
.LBE2852:
.LBE2851:
	.loc 12 50 0
	cmp	r3, r4
.LBB2858:
.LBB2857:
.LBB2856:
.LBB2855:
	.loc 13 337 0
	str	r1, [r2, #-2255]
.LVL94:
.LBE2855:
.LBE2856:
.LBE2857:
.LBE2858:
.LBB2859:
.LBB2860:
.LBB2861:
.LBB2862:
	.loc 5 18 0
	movcc	r1, #0
.LBE2862:
.LBE2861:
.LBE2860:
.LBE2859:
	.loc 12 50 0
	bcs	.L144
.L146:
.LVL95:
	.loc 12 51 0 discriminator 2
	mov	r2, r3, asl #5
.LBB2866:
.LBB2865:
	.loc 6 262 0 discriminator 2
#APP
@ 262 "/home/zj/seL4/myseL4/kernel/include/arch/arm/arch/machine.h" 1
	mcr p15, 0, r2, c7, c14, 1
@ 0 "" 2
.LBB2864:
.LBB2863:
	.loc 5 18 0 discriminator 2
#APP
@ 18 "/home/zj/seL4/myseL4/kernel/include/arch/arm/armv/armv6/armv/machine.h" 1
	mcr p15, 0, r1, c7, c10, 4
@ 0 "" 2
.LBE2863:
.LBE2864:
.LBE2865:
.LBE2866:
	.loc 12 50 0 discriminator 2
	add	r3, r3, #1
	cmp	r3, r4
	bne	.L146
.LVL96:
.L144:
.LBB2867:
.LBB2868:
	.loc 5 18 0
	mov	r3, #0
.LVL97:
#APP
@ 18 "/home/zj/seL4/myseL4/kernel/include/arch/arm/armv/armv6/armv/machine.h" 1
	mcr p15, 0, r3, c7, c10, 4
@ 0 "" 2
.LBE2868:
.LBE2867:
	.loc 12 56 0
	ldmfd	sp!, {r4, r5, r6}
	bx	lr
	.cfi_endproc
.LFE395:
	.size	cleanInvalidateCacheRange_RAM, .-cleanInvalidateCacheRange_RAM
	.align	2
	.global	cleanCacheRange_RAM
	.type	cleanCacheRange_RAM, %function
cleanCacheRange_RAM:
.LFB396:
	.loc 12 60 0
	.cfi_startproc
	@ args = 0, pretend = 0, frame = 0
	@ frame_needed = 0, uses_anonymous_args = 0
	@ link register save eliminated.
.LVL98:
	stmfd	sp!, {r4, r5}
.LCFI7:
	.cfi_def_cfa_offset 8
	.cfi_offset 4, -8
	.cfi_offset 5, -4
.LBB2869:
.LBB2870:
	.loc 12 25 0
	mov	r4, r1, lsr #5
	add	r4, r4, #1
	mov	r3, r0, lsr #5
.LVL99:
	cmp	r3, r4
.LBB2871:
.LBB2872:
.LBB2873:
.LBB2874:
	.loc 5 25 0
	movcc	r5, #0
.LBE2874:
.LBE2873:
.LBE2872:
.LBE2871:
	.loc 12 25 0
	bcs	.L156
.L158:
.LVL100:
	.loc 12 26 0
	mov	ip, r3, asl #5
.LBB2878:
.LBB2877:
	.loc 6 186 0
#APP
@ 186 "/home/zj/seL4/myseL4/kernel/include/arch/arm/arch/machine.h" 1
	mcr p15, 0, ip, c7, c10, 1
@ 0 "" 2
.LBB2876:
.LBB2875:
	.loc 5 25 0
#APP
@ 25 "/home/zj/seL4/myseL4/kernel/include/arch/arm/armv/armv6/armv/machine.h" 1
	mcr p15, 0, r5, c7, c10, 5
@ 0 "" 2
.LBE2875:
.LBE2876:
.LBE2877:
.LBE2878:
	.loc 12 25 0
	add	r3, r3, #1
	cmp	r3, r4
	bne	.L158
.LVL101:
.L156:
.LBE2870:
.LBE2869:
.LBB2879:
.LBB2880:
	.loc 5 18 0
	mov	r3, #0
.LVL102:
#APP
@ 18 "/home/zj/seL4/myseL4/kernel/include/arch/arm/armv/armv6/armv/machine.h" 1
	mcr p15, 0, r3, c7, c10, 4
@ 0 "" 2
.LVL103:
.LBE2880:
.LBE2879:
	.loc 12 68 0
	rsb	r1, r0, r1
.LVL104:
	add	r1, r1, r2
.LVL105:
.LBB2881:
.LBB2882:
	.loc 13 345 0
	mov	r2, r2, lsr #5
.LVL106:
	.loc 13 346 0
	mov	r1, r1, lsr #5
.LVL107:
	add	r1, r1, #1
	.loc 13 345 0
	cmp	r2, r1
	.loc 13 349 0
	mvncc	r0, #1036288
.LVL108:
	.loc 13 345 0
	bcs	.L155
.L157:
	.loc 13 348 0
	mov	r3, r2, asl #5
.LVL109:
	.loc 13 347 0
	add	r2, r2, #1
.LVL110:
	.loc 13 345 0
	cmp	r2, r1
	.loc 13 349 0
	str	r3, [r0, #-2127]
	.loc 13 345 0
	bne	.L157
.LVL111:
.L155:
.LBB2883:
.LBB2884:
	.loc 13 337 0
	mvn	r3, #1036288
	mov	r2, #1
.LVL112:
	str	r2, [r3, #-2255]
.LBE2884:
.LBE2883:
.LBE2882:
.LBE2881:
	.loc 12 69 0
	ldmfd	sp!, {r4, r5}
	bx	lr
	.cfi_endproc
.LFE396:
	.size	cleanCacheRange_RAM, .-cleanCacheRange_RAM
	.align	2
	.global	cleanCacheRange_PoU
	.type	cleanCacheRange_PoU, %function
cleanCacheRange_PoU:
.LFB397:
	.loc 12 73 0
	.cfi_startproc
	@ args = 0, pretend = 0, frame = 0
	@ frame_needed = 0, uses_anonymous_args = 0
	@ link register save eliminated.
.LVL113:
	.loc 12 77 0
	mov	r1, r1, lsr #5
.LVL114:
	add	r2, r1, #1
.LVL115:
	mov	r0, r0, lsr #5
.LVL116:
	cmp	r0, r2
	bxcs	lr
.LBB2885:
.LBB2886:
.LBB2887:
.LBB2888:
	.loc 5 25 0 discriminator 2
	mov	r1, #0
.L165:
.LVL117:
.LBE2888:
.LBE2887:
.LBE2886:
.LBE2885:
	.loc 12 78 0 discriminator 2
	mov	r3, r0, asl #5
.LBB2892:
.LBB2891:
	.loc 6 201 0 discriminator 2
#APP
@ 201 "/home/zj/seL4/myseL4/kernel/include/arch/arm/arch/machine.h" 1
	mcr p15, 0, r3, c7, c10, 1
@ 0 "" 2
.LBB2890:
.LBB2889:
	.loc 5 25 0 discriminator 2
#APP
@ 25 "/home/zj/seL4/myseL4/kernel/include/arch/arm/armv/armv6/armv/machine.h" 1
	mcr p15, 0, r1, c7, c10, 5
@ 0 "" 2
.LBE2889:
.LBE2890:
.LBE2891:
.LBE2892:
	.loc 12 77 0 discriminator 2
	add	r0, r0, #1
	cmp	r0, r2
	bne	.L165
	bx	lr
	.cfi_endproc
.LFE397:
	.size	cleanCacheRange_PoU, .-cleanCacheRange_PoU
	.align	2
	.global	invalidateCacheRange_RAM
	.type	invalidateCacheRange_RAM, %function
invalidateCacheRange_RAM:
.LFB398:
	.loc 12 85 0
	.cfi_startproc
	@ args = 0, pretend = 0, frame = 0
	@ frame_needed = 0, uses_anonymous_args = 0
.LVL118:
	stmfd	sp!, {r3, r4, r5, r6, r7, lr}
.LCFI8:
	.cfi_def_cfa_offset 24
	.cfi_offset 3, -24
	.cfi_offset 4, -20
	.cfi_offset 5, -16
	.cfi_offset 6, -12
	.cfi_offset 7, -8
	.cfi_offset 14, -4
	.loc 12 94 0
	bic	r3, r0, #31
	cmp	r3, r0
	.loc 12 85 0
	mov	r6, r0
	mov	r7, r1
	mov	r5, r2
	.loc 12 94 0
	beq	.L168
	.loc 12 95 0
	mov	r1, r0
.LVL119:
	bl	cleanCacheRange_RAM
.LVL120:
.L168:
	.loc 12 97 0
	add	r3, r7, #1
	bic	r2, r3, #31
	cmp	r3, r2
	beq	.L169
	.loc 12 98 0
	bic	r0, r7, #31
.LVL121:
	.loc 12 99 0
	add	r2, r5, r0
	rsb	r2, r6, r2
	mov	r1, r0
	bl	cleanCacheRange_RAM
.LVL122:
.L169:
	.loc 12 105 0
	rsb	r4, r6, r7
	add	r4, r4, r5
.LVL123:
.LBB2893:
.LBB2894:
	.loc 13 359 0
	mov	r2, r5, lsr #5
.LVL124:
	.loc 13 360 0
	mov	r4, r4, lsr #5
.LVL125:
	add	r4, r4, #1
	.loc 13 359 0
	cmp	r2, r4
	.loc 13 363 0
	mvncc	r5, #1036288
.LVL126:
	.loc 13 359 0
	bcs	.L173
.L175:
	.loc 13 362 0
	mov	ip, r2, asl #5
.LVL127:
	.loc 13 361 0
	add	r2, r2, #1
.LVL128:
	.loc 13 359 0
	cmp	r2, r4
	.loc 13 363 0
	str	ip, [r5, #-2191]
	.loc 13 359 0
	bne	.L175
.LVL129:
.L173:
.LBE2894:
.LBE2893:
	.loc 12 108 0
	mov	ip, r7, lsr #5
	add	ip, ip, #1
	mov	r3, r6, lsr #5
.LVL130:
.LBB2901:
.LBB2899:
.LBB2895:
.LBB2896:
	.loc 13 337 0
	mvn	r2, #1036288
.LVL131:
	mov	r1, #1
.LBE2896:
.LBE2895:
.LBE2899:
.LBE2901:
	.loc 12 108 0
	cmp	r3, ip
.LBB2902:
.LBB2900:
.LBB2898:
.LBB2897:
	.loc 13 337 0
	str	r1, [r2, #-2255]
.LBE2897:
.LBE2898:
.LBE2900:
.LBE2902:
.LBB2903:
.LBB2904:
.LBB2905:
.LBB2906:
	.loc 5 25 0
	movcc	r1, #0
.LBE2906:
.LBE2905:
.LBE2904:
.LBE2903:
	.loc 12 108 0
	bcs	.L172
.L174:
.LVL132:
	.loc 12 109 0 discriminator 2
	mov	r2, r3, asl #5
.LBB2910:
.LBB2909:
	.loc 6 221 0 discriminator 2
#APP
@ 221 "/home/zj/seL4/myseL4/kernel/include/arch/arm/arch/machine.h" 1
	mcr p15, 0, r2, c7, c6, 1
@ 0 "" 2
.LBB2908:
.LBB2907:
	.loc 5 25 0 discriminator 2
#APP
@ 25 "/home/zj/seL4/myseL4/kernel/include/arch/arm/armv/armv6/armv/machine.h" 1
	mcr p15, 0, r1, c7, c10, 5
@ 0 "" 2
.LBE2907:
.LBE2908:
.LBE2909:
.LBE2910:
	.loc 12 108 0 discriminator 2
	add	r3, r3, #1
	cmp	r3, ip
	bne	.L174
.LVL133:
.L172:
.LBB2911:
.LBB2912:
	.loc 5 18 0
	mov	r3, #0
.LVL134:
#APP
@ 18 "/home/zj/seL4/myseL4/kernel/include/arch/arm/armv/armv6/armv/machine.h" 1
	mcr p15, 0, r3, c7, c10, 4
@ 0 "" 2
	ldmfd	sp!, {r3, r4, r5, r6, r7, pc}
.LBE2912:
.LBE2911:
	.cfi_endproc
.LFE398:
	.size	invalidateCacheRange_RAM, .-invalidateCacheRange_RAM
	.align	2
	.global	invalidateCacheRange_I
	.type	invalidateCacheRange_I, %function
invalidateCacheRange_I:
.LFB399:
	.loc 12 118 0
	.cfi_startproc
	@ args = 0, pretend = 0, frame = 0
	@ frame_needed = 0, uses_anonymous_args = 0
	@ link register save eliminated.
.LVL135:
	.loc 12 122 0
	mov	r1, r1, lsr #5
.LVL136:
	add	r2, r1, #1
.LVL137:
	mov	r0, r0, lsr #5
.LVL138:
	cmp	r0, r2
	bxcs	lr
.LBB2913:
.LBB2914:
.LBB2915:
.LBB2916:
	.loc 5 32 0 discriminator 2
	mov	r1, #0
.L182:
.LVL139:
.LBE2916:
.LBE2915:
.LBE2914:
.LBE2913:
	.loc 12 123 0 discriminator 2
	mov	r3, r0, asl #5
.LBB2920:
.LBB2919:
	.loc 6 234 0 discriminator 2
#APP
@ 234 "/home/zj/seL4/myseL4/kernel/include/arch/arm/arch/machine.h" 1
	mcr p15, 0, r3, c7, c5, 1
@ 0 "" 2
.LBB2918:
.LBB2917:
	.loc 5 32 0 discriminator 2
#APP
@ 32 "/home/zj/seL4/myseL4/kernel/include/arch/arm/armv/armv6/armv/machine.h" 1
	mcr p15, 0, r1, c7, c5, 4
@ 0 "" 2
.LBE2917:
.LBE2918:
.LBE2919:
.LBE2920:
	.loc 12 122 0 discriminator 2
	add	r0, r0, #1
	cmp	r0, r2
	bne	.L182
	bx	lr
	.cfi_endproc
.LFE399:
	.size	invalidateCacheRange_I, .-invalidateCacheRange_I
	.align	2
	.global	branchFlushRange
	.type	branchFlushRange, %function
branchFlushRange:
.LFB400:
	.loc 12 130 0
	.cfi_startproc
	@ args = 0, pretend = 0, frame = 0
	@ frame_needed = 0, uses_anonymous_args = 0
	@ link register save eliminated.
.LVL140:
	.loc 12 134 0
	mov	r1, r1, lsr #5
.LVL141:
	add	r2, r1, #1
.LVL142:
	mov	r0, r0, lsr #5
.LVL143:
	cmp	r0, r2
	bxcs	lr
.L187:
.LVL144:
	.loc 12 135 0 discriminator 2
	mov	r3, r0, asl #5
.LBB2921:
.LBB2922:
	.loc 6 271 0 discriminator 2
#APP
@ 271 "/home/zj/seL4/myseL4/kernel/include/arch/arm/arch/machine.h" 1
	mcr p15, 0, r3, c7, c5, 7
@ 0 "" 2
.LBE2922:
.LBE2921:
	.loc 12 134 0 discriminator 2
	add	r0, r0, #1
	cmp	r0, r2
	bne	.L187
	bx	lr
	.cfi_endproc
.LFE400:
	.size	branchFlushRange, .-branchFlushRange
	.align	2
	.global	cleanCaches_PoU
	.type	cleanCaches_PoU, %function
cleanCaches_PoU:
.LFB401:
	.loc 12 142 0
	.cfi_startproc
	@ args = 0, pretend = 0, frame = 0
	@ frame_needed = 0, uses_anonymous_args = 0
	@ link register save eliminated.
.LBB2923:
.LBB2924:
	.loc 5 18 0
	mov	r3, #0
#APP
@ 18 "/home/zj/seL4/myseL4/kernel/include/arch/arm/armv/armv6/armv/machine.h" 1
	mcr p15, 0, r3, c7, c10, 4
@ 0 "" 2
.LBE2924:
.LBE2923:
.LBB2925:
.LBB2926:
	.loc 3 18 0
#APP
@ 18 "/home/zj/seL4/myseL4/kernel/src/arch/arm/armv/armv6/cache.c" 1
	mcr p15, 0, r3, c7, c10, 0
@ 0 "" 2
.LBE2926:
.LBE2925:
.LBB2927:
.LBB2928:
	.loc 5 18 0
#APP
@ 18 "/home/zj/seL4/myseL4/kernel/include/arch/arm/armv/armv6/armv/machine.h" 1
	mcr p15, 0, r3, c7, c10, 4
@ 0 "" 2
.LBE2928:
.LBE2927:
.LBB2929:
.LBB2930:
	.loc 6 247 0
#APP
@ 247 "/home/zj/seL4/myseL4/kernel/include/arch/arm/arch/machine.h" 1
	mcr p15, 0, r3, c7, c5, 0
@ 0 "" 2
.LBB2931:
.LBB2932:
	.loc 5 32 0
#APP
@ 32 "/home/zj/seL4/myseL4/kernel/include/arch/arm/armv/armv6/armv/machine.h" 1
	mcr p15, 0, r3, c7, c5, 4
@ 0 "" 2
.LBE2932:
.LBE2931:
.LBE2930:
.LBE2929:
.LBB2933:
.LBB2934:
	.loc 5 18 0
#APP
@ 18 "/home/zj/seL4/myseL4/kernel/include/arch/arm/armv/armv6/armv/machine.h" 1
	mcr p15, 0, r3, c7, c10, 4
@ 0 "" 2
	bx	lr
.LBE2934:
.LBE2933:
	.cfi_endproc
.LFE401:
	.size	cleanCaches_PoU, .-cleanCaches_PoU
	.align	2
	.global	cleanInvalidateL1Caches
	.type	cleanInvalidateL1Caches, %function
cleanInvalidateL1Caches:
.LFB402:
	.loc 12 152 0
	.cfi_startproc
	@ args = 0, pretend = 0, frame = 0
	@ frame_needed = 0, uses_anonymous_args = 0
	@ link register save eliminated.
.LBB2935:
.LBB2936:
	.loc 5 18 0
	mov	r3, #0
#APP
@ 18 "/home/zj/seL4/myseL4/kernel/include/arch/arm/armv/armv6/armv/machine.h" 1
	mcr p15, 0, r3, c7, c10, 4
@ 0 "" 2
.LBE2936:
.LBE2935:
.LBB2937:
.LBB2938:
	.loc 3 26 0
#APP
@ 26 "/home/zj/seL4/myseL4/kernel/src/arch/arm/armv/armv6/cache.c" 1
	mcr p15, 0, r3, c7, c14, 0
@ 0 "" 2
.LBE2938:
.LBE2937:
.LBB2939:
.LBB2940:
	.loc 5 18 0
#APP
@ 18 "/home/zj/seL4/myseL4/kernel/include/arch/arm/armv/armv6/armv/machine.h" 1
	mcr p15, 0, r3, c7, c10, 4
@ 0 "" 2
.LBE2940:
.LBE2939:
.LBB2941:
.LBB2942:
	.loc 6 247 0
#APP
@ 247 "/home/zj/seL4/myseL4/kernel/include/arch/arm/arch/machine.h" 1
	mcr p15, 0, r3, c7, c5, 0
@ 0 "" 2
.LBB2943:
.LBB2944:
	.loc 5 32 0
#APP
@ 32 "/home/zj/seL4/myseL4/kernel/include/arch/arm/armv/armv6/armv/machine.h" 1
	mcr p15, 0, r3, c7, c5, 4
@ 0 "" 2
.LBE2944:
.LBE2943:
.LBE2942:
.LBE2941:
.LBB2945:
.LBB2946:
	.loc 5 18 0
#APP
@ 18 "/home/zj/seL4/myseL4/kernel/include/arch/arm/armv/armv6/armv/machine.h" 1
	mcr p15, 0, r3, c7, c10, 4
@ 0 "" 2
	bx	lr
.LBE2946:
.LBE2945:
	.cfi_endproc
.LFE402:
	.size	cleanInvalidateL1Caches, .-cleanInvalidateL1Caches
	.align	2
	.global	set_breakpoint
	.type	set_breakpoint, %function
set_breakpoint:
.LFB429:
	.file 14 "/home/zj/seL4/myseL4/kernel/src/arch/arm/machine/debug.c"
	.loc 14 98 0
	.cfi_startproc
	@ args = 0, pretend = 0, frame = 0
	@ frame_needed = 0, uses_anonymous_args = 0
	@ link register save eliminated.
.LVL145:
	.loc 14 101 0
	ldr	r3, .L218
	.loc 14 98 0
	stmfd	sp!, {r4, r5, r6}
.LCFI9:
	.cfi_def_cfa_offset 12
	.cfi_offset 4, -12
	.cfi_offset 5, -8
	.cfi_offset 6, -4
	.loc 14 98 0
	mov	r6, r0
	.loc 14 101 0
	ldr	r4, [r3, #0]
	cmp	r4, #0
	beq	.L212
	ldr	r5, .L218+4
	ldr	r3, [r5, #4]
	cmp	r3, #0
	beq	.L193
	mov	r2, r5
	mov	r3, #0
	b	.L194
.LVL146:
.L217:
	.loc 14 101 0 is_stmt 0 discriminator 2
	ldr	ip, [r2, #4]
	cmp	ip, #0
	beq	.L216
.LVL147:
.L194:
	.loc 14 101 0 discriminator 1
	add	r3, r3, #1
.LVL148:
	cmp	r3, r4
	add	r2, r2, #8
	bne	.L217
.LVL149:
.L212:
	.loc 14 104 0 is_stmt 1
	mvn	r0, #0
.LVL150:
.L213:
	.loc 14 119 0
	ldmfd	sp!, {r4, r5, r6}
	bx	lr
.LVL151:
.L216:
	.loc 14 108 0
	add	r2, r5, r3, asl #3
	.loc 14 107 0
	str	r6, [r5, r3, asl #3]
	.loc 14 108 0
	str	r1, [r2, #4]
.LVL152:
	mov	r0, r3
.LVL153:
.LBB2951:
.LBB2952:
	.file 15 "/home/zj/seL4/myseL4/kernel/include/arch/arm/arch/machine/debug.h"
	.loc 15 170 0
	cmp	r3, #5
	ldrls	pc, [pc, r3, asl #2]
	b	.L208
.L210:
	.word	.L196
	.word	.L198
	.word	.L200
	.word	.L202
	.word	.L204
	.word	.L206
.LVL154:
.L206:
	.loc 15 187 0
#APP
@ 187 "/home/zj/seL4/myseL4/kernel/include/arch/arm/arch/machine/debug.h" 1
	mcr p14, 0, r6, c0, c5, 4
@ 0 "" 2
.LVL155:
.L207:
.LBE2952:
.LBE2951:
.LBB2958:
.LBB2959:
	.loc 15 255 0
	ldr	r3, .L218+8
#APP
@ 255 "/home/zj/seL4/myseL4/kernel/include/arch/arm/arch/machine/debug.h" 1
	mcr p14, 0, r3, c0, c5, 5
@ 0 "" 2
	mov	r0, #5
.LVL156:
	b	.L213
.LVL157:
.L204:
.LBE2959:
.LBE2958:
.LBB2965:
.LBB2953:
	.loc 15 184 0
#APP
@ 184 "/home/zj/seL4/myseL4/kernel/include/arch/arm/arch/machine/debug.h" 1
	mcr p14, 0, r6, c0, c4, 4
@ 0 "" 2
.LVL158:
.L205:
.LBE2953:
.LBE2965:
.LBB2966:
.LBB2960:
	.loc 15 252 0
	ldr	r3, .L218+8
#APP
@ 252 "/home/zj/seL4/myseL4/kernel/include/arch/arm/arch/machine/debug.h" 1
	mcr p14, 0, r3, c0, c4, 5
@ 0 "" 2
	mov	r0, #4
.LVL159:
	b	.L213
.LVL160:
.L202:
.LBE2960:
.LBE2966:
.LBB2967:
.LBB2954:
	.loc 15 181 0
#APP
@ 181 "/home/zj/seL4/myseL4/kernel/include/arch/arm/arch/machine/debug.h" 1
	mcr p14, 0, r6, c0, c3, 4
@ 0 "" 2
.LVL161:
.L203:
.LBE2954:
.LBE2967:
.LBB2968:
.LBB2961:
	.loc 15 249 0
	ldr	r3, .L218+8
#APP
@ 249 "/home/zj/seL4/myseL4/kernel/include/arch/arm/arch/machine/debug.h" 1
	mcr p14, 0, r3, c0, c3, 5
@ 0 "" 2
	mov	r0, #3
.LVL162:
	b	.L213
.LVL163:
.L200:
.LBE2961:
.LBE2968:
.LBB2969:
.LBB2955:
	.loc 15 178 0
#APP
@ 178 "/home/zj/seL4/myseL4/kernel/include/arch/arm/arch/machine/debug.h" 1
	mcr p14, 0, r6, c0, c2, 4
@ 0 "" 2
.LVL164:
.L201:
.LBE2955:
.LBE2969:
.LBB2970:
.LBB2962:
	.loc 15 246 0
	ldr	r3, .L218+8
#APP
@ 246 "/home/zj/seL4/myseL4/kernel/include/arch/arm/arch/machine/debug.h" 1
	mcr p14, 0, r3, c0, c2, 5
@ 0 "" 2
	mov	r0, #2
.LVL165:
	b	.L213
.LVL166:
.L198:
.LBE2962:
.LBE2970:
.LBB2971:
.LBB2956:
	.loc 15 175 0
#APP
@ 175 "/home/zj/seL4/myseL4/kernel/include/arch/arm/arch/machine/debug.h" 1
	mcr p14, 0, r6, c0, c1, 4
@ 0 "" 2
.LVL167:
.L199:
.LBE2956:
.LBE2971:
.LBB2972:
.LBB2963:
	.loc 15 243 0
	ldr	r3, .L218+8
#APP
@ 243 "/home/zj/seL4/myseL4/kernel/include/arch/arm/arch/machine/debug.h" 1
	mcr p14, 0, r3, c0, c1, 5
@ 0 "" 2
	mov	r0, #1
.LVL168:
	b	.L213
.LVL169:
.L193:
.LBE2963:
.LBE2972:
	.loc 14 107 0
	str	r0, [r5, #0]
	.loc 14 108 0
	str	r1, [r5, #4]
.LVL170:
.L196:
.LBB2973:
.LBB2957:
	.loc 15 172 0
#APP
@ 172 "/home/zj/seL4/myseL4/kernel/include/arch/arm/arch/machine/debug.h" 1
	mcr p14, 0, r6, c0, c0, 4
@ 0 "" 2
.LVL171:
.L197:
.LBE2957:
.LBE2973:
.LBB2974:
.LBB2964:
	.loc 15 240 0
	ldr	r3, .L218+8
#APP
@ 240 "/home/zj/seL4/myseL4/kernel/include/arch/arm/arch/machine/debug.h" 1
	mcr p14, 0, r3, c0, c0, 5
@ 0 "" 2
	mov	r0, #0
	b	.L213
.LVL172:
.L208:
	.loc 15 238 0
	cmp	r3, #5
	ldrls	pc, [pc, r3, asl #2]
	b	.L213
.L209:
	.word	.L197
	.word	.L199
	.word	.L201
	.word	.L203
	.word	.L205
	.word	.L207
.L219:
	.align	2
.L218:
	.word	n_breakpoints
	.word	breakpoints
	.word	487
.LBE2964:
.LBE2974:
	.cfi_endproc
.LFE429:
	.size	set_breakpoint, .-set_breakpoint
	.align	2
	.global	clear_breakpoint
	.type	clear_breakpoint, %function
clear_breakpoint:
.LFB430:
	.loc 14 123 0
	.cfi_startproc
	@ args = 0, pretend = 0, frame = 0
	@ frame_needed = 0, uses_anonymous_args = 0
	@ link register save eliminated.
.LVL173:
	.loc 14 126 0
	ldr	r3, .L238
	.loc 14 123 0
	stmfd	sp!, {r4, r5, r6}
.LCFI10:
	.cfi_def_cfa_offset 12
	.cfi_offset 4, -12
	.cfi_offset 5, -8
	.cfi_offset 6, -4
	.loc 14 126 0
	ldr	r5, [r3, #0]
	cmp	r5, #0
	beq	.L220
	.loc 14 122 0
	mov	r3, #0
	ldr	r1, .L238+4
	mov	r5, r5, asl #3
	.loc 14 126 0
	mov	r2, r3
	.loc 14 130 0
	mov	r6, r3
	b	.L231
.LVL174:
.L222:
	add	r3, r3, #8
	.loc 14 126 0
	cmp	r3, r5
	add	r2, r2, #1
.LVL175:
	beq	.L220
.LVL176:
.L231:
	.loc 14 127 0
	ldr	ip, [r1, r3]
	add	r4, r1, r3
	cmp	ip, r0
	bne	.L222
	.loc 14 127 0 is_stmt 0 discriminator 1
	ldr	ip, [r4, #4]
	cmp	ip, #0
	beq	.L222
.LVL177:
.LBB2977:
.LBB2978:
	.loc 15 238 0 is_stmt 1
	cmp	r2, #5
	ldrls	pc, [pc, r2, asl #2]
	b	.L223
.L230:
	.word	.L224
	.word	.L225
	.word	.L226
	.word	.L227
	.word	.L228
	.word	.L229
.L224:
	.loc 15 240 0
#APP
@ 240 "/home/zj/seL4/myseL4/kernel/include/arch/arm/arch/machine/debug.h" 1
	mcr p14, 0, r6, c0, c0, 5
@ 0 "" 2
.L223:
.LBE2978:
.LBE2977:
	.loc 14 130 0
	str	r6, [r4, #4]
.L237:
	add	r3, r3, #8
	.loc 14 126 0
	cmp	r3, r5
	add	r2, r2, #1
.LVL178:
	bne	.L231
.LVL179:
.L220:
	.loc 14 133 0
	ldmfd	sp!, {r4, r5, r6}
	bx	lr
.LVL180:
.L229:
.LBB2984:
.LBB2979:
	.loc 15 255 0
#APP
@ 255 "/home/zj/seL4/myseL4/kernel/include/arch/arm/arch/machine/debug.h" 1
	mcr p14, 0, r6, c0, c5, 5
@ 0 "" 2
.LBE2979:
.LBE2984:
	.loc 14 130 0
	str	r6, [r4, #4]
	b	.L237
.L228:
.LBB2985:
.LBB2980:
	.loc 15 252 0
#APP
@ 252 "/home/zj/seL4/myseL4/kernel/include/arch/arm/arch/machine/debug.h" 1
	mcr p14, 0, r6, c0, c4, 5
@ 0 "" 2
.LBE2980:
.LBE2985:
	.loc 14 130 0
	str	r6, [r4, #4]
	b	.L237
.L227:
.LBB2986:
.LBB2981:
	.loc 15 249 0
#APP
@ 249 "/home/zj/seL4/myseL4/kernel/include/arch/arm/arch/machine/debug.h" 1
	mcr p14, 0, r6, c0, c3, 5
@ 0 "" 2
.LBE2981:
.LBE2986:
	.loc 14 130 0
	str	r6, [r4, #4]
	b	.L237
.L226:
.LBB2987:
.LBB2982:
	.loc 15 246 0
#APP
@ 246 "/home/zj/seL4/myseL4/kernel/include/arch/arm/arch/machine/debug.h" 1
	mcr p14, 0, r6, c0, c2, 5
@ 0 "" 2
.LBE2982:
.LBE2987:
	.loc 14 130 0
	str	r6, [r4, #4]
	b	.L237
.L225:
.LBB2988:
.LBB2983:
	.loc 15 243 0
#APP
@ 243 "/home/zj/seL4/myseL4/kernel/include/arch/arm/arch/machine/debug.h" 1
	mcr p14, 0, r6, c0, c1, 5
@ 0 "" 2
.LBE2983:
.LBE2988:
	.loc 14 130 0
	str	r6, [r4, #4]
	b	.L237
.L239:
	.align	2
.L238:
	.word	n_breakpoints
	.word	breakpoints
	.cfi_endproc
.LFE430:
	.size	clear_breakpoint, .-clear_breakpoint
	.align	2
	.global	set_catch_handler
	.type	set_catch_handler, %function
set_catch_handler:
.LFB431:
	.loc 14 139 0
	.cfi_startproc
	@ args = 0, pretend = 0, frame = 0
	@ frame_needed = 0, uses_anonymous_args = 0
	@ link register save eliminated.
.LVL181:
	.loc 14 140 0
	ldr	r3, .L241
	str	r0, [r3, #0]
	bx	lr
.L242:
	.align	2
.L241:
	.word	catch_handler
	.cfi_endproc
.LFE431:
	.size	set_catch_handler, .-set_catch_handler
	.align	2
	.global	catch_vector
	.type	catch_vector, %function
catch_vector:
.LFB432:
	.loc 14 145 0
	.cfi_startproc
	@ args = 0, pretend = 0, frame = 0
	@ frame_needed = 0, uses_anonymous_args = 0
	@ link register save eliminated.
.LVL182:
.LBB2989:
.LBB2990:
	.loc 15 124 0
#APP
@ 124 "/home/zj/seL4/myseL4/kernel/include/arch/arm/arch/machine/debug.h" 1
	mrc p14, 0, r3, c0, c7, 0
@ 0 "" 2
.LVL183:
.LBE2990:
.LBE2989:
	.loc 14 149 0
	mov	r2, #1
	orr	r0, r3, r2, asl r0
.LVL184:
.LBB2991:
.LBB2992:
	.loc 15 132 0
#APP
@ 132 "/home/zj/seL4/myseL4/kernel/include/arch/arm/arch/machine/debug.h" 1
	mcr p14, 0, r0, c0, c7, 0
@ 0 "" 2
	bx	lr
.LBE2992:
.LBE2991:
	.cfi_endproc
.LFE432:
	.size	catch_vector, .-catch_vector
	.align	2
	.global	uncatch_vector
	.type	uncatch_vector, %function
uncatch_vector:
.LFB433:
	.loc 14 155 0
	.cfi_startproc
	@ args = 0, pretend = 0, frame = 0
	@ frame_needed = 0, uses_anonymous_args = 0
	@ link register save eliminated.
.LVL185:
.LBB2993:
.LBB2994:
	.loc 15 124 0
#APP
@ 124 "/home/zj/seL4/myseL4/kernel/include/arch/arm/arch/machine/debug.h" 1
	mrc p14, 0, r3, c0, c7, 0
@ 0 "" 2
.LVL186:
.LBE2994:
.LBE2993:
	.loc 14 159 0
	mov	r2, #1
	bic	r0, r3, r2, asl r0
.LVL187:
.LBB2995:
.LBB2996:
	.loc 15 132 0
#APP
@ 132 "/home/zj/seL4/myseL4/kernel/include/arch/arm/arch/machine/debug.h" 1
	mcr p14, 0, r0, c0, c7, 0
@ 0 "" 2
	bx	lr
.LBE2996:
.LBE2995:
	.cfi_endproc
.LFE433:
	.size	uncatch_vector, .-uncatch_vector
	.section	.boot.text
	.align	2
	.global	arm_errata
	.type	arm_errata, %function
arm_errata:
.LFB435:
	.file 16 "/home/zj/seL4/myseL4/kernel/src/arch/arm/machine/errata.c"
	.loc 16 71 0
	.cfi_startproc
	@ args = 0, pretend = 0, frame = 0
	@ frame_needed = 0, uses_anonymous_args = 0
	@ link register save eliminated.
.LBB2997:
.LBB2998:
.LBB2999:
.LBB3000:
	.loc 6 72 0
#APP
@ 72 "/home/zj/seL4/myseL4/kernel/include/arch/arm/arch/machine.h" 1
	mrc  p15, 0, r2, c0, c0, 0
@ 0 "" 2
.LVL188:
.LBE3000:
.LBE2999:
	.loc 16 34 0
	ldr	r3, .L247
	bic	r2, r2, #15
.LVL189:
	cmp	r2, r3
	bxne	lr
.LBB3001:
.LBB3002:
	.loc 6 80 0
#APP
@ 80 "/home/zj/seL4/myseL4/kernel/include/arch/arm/arch/machine.h" 1
	mrc  p15, 0, r3, c1, c0, 0
@ 0 "" 2
.LVL190:
.LBE3002:
.LBE3001:
	.loc 16 37 0
	orr	r3, r3, #2097152
.LVL191:
.LBB3003:
.LBB3004:
	.loc 6 87 0
#APP
@ 87 "/home/zj/seL4/myseL4/kernel/include/arch/arm/arch/machine.h" 1
	mcr  p15, 0, r3, c1, c0, 0
@ 0 "" 2
.LBE3004:
.LBE3003:
.LBB3005:
.LBB3006:
	.loc 6 94 0
#APP
@ 94 "/home/zj/seL4/myseL4/kernel/include/arch/arm/arch/machine.h" 1
	mrc  p15, 0, r3, c1, c0, 1
@ 0 "" 2
.LVL192:
.LBE3006:
.LBE3005:
	.loc 16 41 0
	orr	r3, r3, #-2147483648
.LVL193:
.LBB3007:
.LBB3008:
	.loc 6 101 0
#APP
@ 101 "/home/zj/seL4/myseL4/kernel/include/arch/arm/arch/machine.h" 1
	mcr  p15, 0, r3, c1, c0, 1
@ 0 "" 2
	bx	lr
.L248:
	.align	2
.L247:
	.word	1091023712
.LBE3008:
.LBE3007:
.LBE2998:
.LBE2997:
	.cfi_endproc
.LFE435:
	.size	arm_errata, .-arm_errata
	.text
	.align	2
	.global	getRestartPC
	.type	getRestartPC, %function
getRestartPC:
.LFB436:
	.file 17 "/home/zj/seL4/myseL4/kernel/src/arch/arm/machine/hardware.c"
	.loc 17 17 0
	.cfi_startproc
	@ args = 0, pretend = 0, frame = 0
	@ frame_needed = 0, uses_anonymous_args = 0
	@ link register save eliminated.
.LVL194:
	.loc 17 19 0
	ldr	r0, [r0, #68]
.LVL195:
	bx	lr
	.cfi_endproc
.LFE436:
	.size	getRestartPC, .-getRestartPC
	.align	2
	.global	setNextPC
	.type	setNextPC, %function
setNextPC:
.LFB437:
	.loc 17 23 0
	.cfi_startproc
	@ args = 0, pretend = 0, frame = 0
	@ frame_needed = 0, uses_anonymous_args = 0
	@ link register save eliminated.
.LVL196:
.LBB3009:
.LBB3010:
	.loc 9 21 0
	str	r1, [r0, #60]
	bx	lr
.LBE3010:
.LBE3009:
	.cfi_endproc
.LFE437:
	.size	setNextPC, .-setNextPC
	.align	2
	.global	Arch_decodeInterruptControl
	.type	Arch_decodeInterruptControl, %function
Arch_decodeInterruptControl:
.LFB438:
	.file 18 "/home/zj/seL4/myseL4/kernel/src/arch/arm/object/interrupt.c"
	.loc 18 18 0
	.cfi_startproc
	@ args = 0, pretend = 0, frame = 16
	@ frame_needed = 0, uses_anonymous_args = 0
	@ link register save eliminated.
.LVL197:
	str	r4, [sp, #-4]!
.LCFI11:
	.cfi_def_cfa_offset 4
	.cfi_offset 4, -4
	sub	sp, sp, #20
.LCFI12:
	.cfi_def_cfa_offset 24
	.loc 18 19 0
	ldr	r4, .L252
	.loc 18 18 0
	add	r0, sp, #16
.LVL198:
	.loc 18 19 0
	mov	ip, #3
	.loc 18 18 0
	stmdb	r0, {r1, r2, r3}
	.loc 18 21 0
	mov	r0, ip
	.loc 18 19 0
	str	ip, [r4, #24]
	.loc 18 21 0
	add	sp, sp, #20
	ldmfd	sp!, {r4}
	bx	lr
.L253:
	.align	2
.L252:
	.word	current_syscall_error
	.cfi_endproc
.LFE438:
	.size	Arch_decodeInterruptControl, .-Arch_decodeInterruptControl
	.align	2
	.global	Arch_updateCapData
	.type	Arch_updateCapData, %function
Arch_updateCapData:
.LFB440:
	.file 19 "/home/zj/seL4/myseL4/kernel/src/arch/arm/object/objecttype.c"
	.loc 19 76 0
	.cfi_startproc
	@ args = 12, pretend = 8, frame = 0
	@ frame_needed = 0, uses_anonymous_args = 0
	@ link register save eliminated.
.LVL199:
	sub	sp, sp, #8
.LCFI13:
	.cfi_def_cfa_offset 8
	.loc 19 76 0
	sub	r2, sp, #4
.LVL200:
	mov	ip, r0
	str	r3, [r2, #8]!
	.loc 19 77 0
	ldmia	r2, {r0, r1}
.LVL201:
	stmia	ip, {r0, r1}
	.loc 19 78 0
	mov	r0, ip
	add	sp, sp, #8
	bx	lr
	.cfi_endproc
.LFE440:
	.size	Arch_updateCapData, .-Arch_updateCapData
	.align	2
	.global	Arch_prepareThreadDelete
	.type	Arch_prepareThreadDelete, %function
Arch_prepareThreadDelete:
.LFB451:
	.loc 19 467 0
	.cfi_startproc
	@ args = 0, pretend = 0, frame = 0
	@ frame_needed = 0, uses_anonymous_args = 0
	@ link register save eliminated.
.LVL202:
	bx	lr
	.cfi_endproc
.LFE451:
	.size	Arch_prepareThreadDelete, .-Arch_prepareThreadDelete
	.align	2
	.global	Arch_decodeTransfer
	.type	Arch_decodeTransfer, %function
Arch_decodeTransfer:
.LFB456:
	.file 20 "/home/zj/seL4/myseL4/kernel/src/arch/arm/object/tcb.c"
	.loc 20 179 0
	.cfi_startproc
	@ args = 0, pretend = 0, frame = 0
	@ frame_needed = 0, uses_anonymous_args = 0
	@ link register save eliminated.
.LVL203:
	.loc 20 181 0
	mov	r0, #0
.LVL204:
	bx	lr
	.cfi_endproc
.LFE456:
	.size	Arch_decodeTransfer, .-Arch_decodeTransfer
	.align	2
	.global	Arch_performTransfer
	.type	Arch_performTransfer, %function
Arch_performTransfer:
.LFB457:
	.loc 20 185 0
	.cfi_startproc
	@ args = 0, pretend = 0, frame = 0
	@ frame_needed = 0, uses_anonymous_args = 0
	@ link register save eliminated.
.LVL205:
	.loc 20 187 0
	mov	r0, #0
.LVL206:
	bx	lr
	.cfi_endproc
.LFE457:
	.size	Arch_performTransfer, .-Arch_performTransfer
	.section	.boot.text
	.align	2
	.global	bi_finalise
	.type	bi_finalise, %function
bi_finalise:
.LFB480:
	.file 21 "/home/zj/seL4/myseL4/kernel/src/kernel/boot.c"
	.loc 21 534 0
	.cfi_startproc
	@ args = 0, pretend = 0, frame = 0
	@ frame_needed = 0, uses_anonymous_args = 0
	@ link register save eliminated.
.LVL207:
	.loc 21 536 0
	ldr	r3, .L259
	.loc 21 537 0
	ldr	r2, [r3, #16]
	.loc 21 536 0
	ldr	r1, [r3, #24]
.LVL208:
	.loc 21 537 0
	ldr	r3, [r3, #20]
	str	r1, [r2, #20]
	str	r3, [r2, #16]
	bx	lr
.L260:
	.align	2
.L259:
	.word	.LANCHOR2
	.cfi_endproc
.LFE480:
	.size	bi_finalise, .-bi_finalise
	.text
	.align	2
	.global	switchToIdleThread
	.type	switchToIdleThread, %function
switchToIdleThread:
.LFB509:
	.file 22 "/home/zj/seL4/myseL4/kernel/src/kernel/thread.c"
	.loc 22 353 0
	.cfi_startproc
	@ args = 0, pretend = 0, frame = 0
	@ frame_needed = 0, uses_anonymous_args = 0
	@ link register save eliminated.
	.loc 22 355 0
	ldr	r2, .L262
	ldr	r1, .L262+4
.LBB3011:
.LBB3012:
	.loc 8 36 0
	ldr	r3, .L262+8
.LBE3012:
.LBE3011:
	.loc 22 355 0
	ldr	r0, [r2, #0]
.LBB3015:
.LBB3013:
	.loc 8 36 0
	mov	r2, #0
.LBE3013:
.LBE3015:
	.loc 22 355 0
	str	r0, [r1, #0]
.LBB3016:
.LBB3014:
	.loc 8 36 0
	str	r2, [r3, #0]
	bx	lr
.L263:
	.align	2
.L262:
	.word	ksIdleThread
	.word	ksCurThread
	.word	.LANCHOR0
.LBE3014:
.LBE3016:
	.cfi_endproc
.LFE509:
	.size	switchToIdleThread, .-switchToIdleThread
	.align	2
	.global	print_unsigned_long
	.type	print_unsigned_long, %function
print_unsigned_long:
.LFB522:
	.file 23 "/home/zj/seL4/myseL4/kernel/src/machine/io.c"
	.loc 23 56 0
	.cfi_startproc
	@ args = 0, pretend = 0, frame = 16
	@ frame_needed = 0, uses_anonymous_args = 0
	@ link register save eliminated.
.LVL209:
	.loc 23 65 0
	cmp	r1, #16
	cmpne	r1, #10
	.loc 23 56 0
	stmfd	sp!, {r4, r5}
.LCFI14:
	.cfi_def_cfa_offset 8
	.cfi_offset 4, -8
	.cfi_offset 5, -4
	mov	r3, r0
	sub	sp, sp, #16
.LCFI15:
	.cfi_def_cfa_offset 24
	.loc 23 65 0
	moveq	r2, #0
	movne	r2, #1
	.loc 23 66 0
	movne	r0, #0
.LVL210:
	.loc 23 65 0
	bne	.L306
	.loc 23 69 0
	cmp	r3, #0
	beq	.L266
.LBB3029:
.LBB3030:
.LBB3031:
.LBB3032:
	.loc 23 44 0
	cmp	r1, #10
.LBE3032:
.LBE3031:
.LBB3037:
.LBB3038:
	.loc 23 35 0
	ldr	ip, .L311
.LBE3038:
.LBE3037:
.LBE3030:
.LBE3029:
	.loc 23 69 0
	mov	r0, r2
	add	r4, sp, #4
.LVL211:
.LBB3059:
.LBB3057:
.LBB3044:
.LBB3033:
	.loc 23 44 0
	beq	.L268
.LVL212:
.L309:
	cmp	r1, #16
	movne	r2, #48
	beq	.L308
.LBE3033:
.LBE3044:
.LBB3045:
.LBB3039:
	.loc 23 31 0
	cmp	r1, #10
.LBE3039:
.LBE3045:
	.loc 23 80 0
	strb	r2, [r4, r0]
.LVL213:
.LBB3046:
.LBB3040:
	.loc 23 31 0
	beq	.L274
.L310:
	cmp	r1, #16
	beq	.L272
.LBE3040:
.LBE3046:
	.loc 23 74 0
	add	r0, r0, #1
.LVL214:
.L282:
	.loc 23 84 0
	cmp	r0, #0
	beq	.L306
	.loc 23 55 0
	add	ip, r4, r0
.LBB3047:
.LBB3048:
	.loc 2 45 0
	mvn	r2, #1032192
.LVL215:
.L279:
.LBE3048:
.LBE3047:
	.loc 23 85 0
	ldrb	r1, [ip, #-1]!	@ zero_extendqisi2
.LVL216:
.L303:
.LBB3050:
.LBB3049:
	.loc 2 45 0
	ldr	r3, [r2, #-3947]
	tst	r3, #8192
	beq	.L303
	.loc 2 48 0
	cmp	r1, #10
	.loc 2 47 0
	str	r1, [r2, #-4031]
	.loc 2 49 0
	mov	r1, #13
	.loc 2 48 0
	beq	.L303
.LBE3049:
.LBE3050:
	.loc 23 84 0
	cmp	ip, r4
	bne	.L279
.LVL217:
.L306:
.LBE3057:
.LBE3059:
	.loc 23 89 0
	add	sp, sp, #16
	ldmfd	sp!, {r4, r5}
	bx	lr
.LVL218:
.L266:
.LBB3060:
.LBB3061:
	.loc 2 45 0
	mvn	r1, #1032192
.LVL219:
.L295:
	ldr	r3, [r1, #-3947]
	mvn	r2, #1032192
	tst	r3, #8192
	beq	.L295
	.loc 2 47 0
	mov	r3, #48
	str	r3, [r2, #-4031]
	.loc 23 71 0
	mov	r0, #1
	b	.L306
.LVL220:
.L308:
.LBE3061:
.LBE3060:
.LBB3062:
.LBB3058:
.LBB3051:
.LBB3034:
	.loc 23 46 0
	and	r2, r3, #15
.LBE3034:
.LBE3051:
	.loc 23 77 0
	cmp	r2, #9
	.loc 23 78 0
	addhi	r2, r2, #87
	strhib	r2, [r4, r0]
	.loc 23 77 0
	.loc 23 80 0
	addls	r2, r2, #48
	strlsb	r2, [r4, r0]
.LVL221:
.L272:
.LBB3052:
.LBB3041:
	.loc 23 33 0
	mov	r3, r3, lsr #4
.LVL222:
.L273:
.LBE3041:
.LBE3052:
	.loc 23 74 0
	cmp	r3, #0
	add	r0, r0, #1
.LVL223:
	beq	.L282
.LVL224:
.LBB3053:
.LBB3035:
	.loc 23 44 0
	cmp	r1, #10
	bne	.L309
.LVL225:
.L268:
	.loc 23 48 0
	umull	r5, r2, ip, r3
.LBE3035:
.LBE3053:
.LBB3054:
.LBB3042:
	.loc 23 31 0
	cmp	r1, #10
.LBE3042:
.LBE3054:
.LBB3055:
.LBB3036:
	.loc 23 48 0
	mov	r2, r2, lsr #3
	add	r2, r2, r2, asl #2
	sub	r2, r3, r2, asl #1
	add	r2, r2, #48
	uxtb	r2, r2
.LBE3036:
.LBE3055:
	.loc 23 80 0
	strb	r2, [r4, r0]
.LVL226:
.LBB3056:
.LBB3043:
	.loc 23 31 0
	bne	.L310
.L274:
	.loc 23 35 0
	umull	r2, r3, ip, r3
.LVL227:
	mov	r3, r3, lsr #3
	b	.L273
.L312:
	.align	2
.L311:
	.word	-858993459
.LBE3043:
.LBE3056:
.LBE3058:
.LBE3062:
	.cfi_endproc
.LFE522:
	.size	print_unsigned_long, .-print_unsigned_long
	.align	2
	.global	printf
	.type	printf, %function
printf:
.LFB525:
	.loc 23 223 0
	.cfi_startproc
	@ args = 4, pretend = 16, frame = 8
	@ frame_needed = 0, uses_anonymous_args = 1
.LVL228:
	stmfd	sp!, {r0, r1, r2, r3}
.LCFI16:
	.cfi_def_cfa_offset 16
	.cfi_offset 0, -16
	.cfi_offset 1, -12
	.cfi_offset 2, -8
	.cfi_offset 3, -4
	stmfd	sp!, {r4, r5, r6, r7, r8, r9, sl, fp, lr}
.LCFI17:
	.cfi_def_cfa_offset 52
	.cfi_offset 4, -52
	.cfi_offset 5, -48
	.cfi_offset 6, -44
	.cfi_offset 7, -40
	.cfi_offset 8, -36
	.cfi_offset 9, -32
	.cfi_offset 10, -28
	.cfi_offset 11, -24
	.cfi_offset 14, -20
	sub	sp, sp, #12
.LCFI18:
	.cfi_def_cfa_offset 64
	.loc 23 227 0
	add	sl, sp, #52
	.loc 23 223 0
	ldr	r7, [sp, #48]
	.loc 23 227 0
	str	sl, [sp, #4]
.LVL229:
.LBB3090:
.LBB3091:
	.loc 23 133 0
	cmp	r7, #0
	beq	.L350
	mov	r1, #0
	mov	r8, r1
.LBB3092:
.LBB3093:
	.loc 2 45 0
	mvn	r6, #1032192
.LVL230:
.L402:
.LBE3093:
.LBE3092:
	.loc 23 139 0
	ldrb	r2, [r7, #0]	@ zero_extendqisi2
	cmp	r2, #0
	beq	.L314
.L349:
	.loc 23 140 0
	cmp	r1, #0
	beq	.L316
	.loc 23 141 0
	cmp	r2, #112
	beq	.L321
	bhi	.L325
	cmp	r2, #100
	beq	.L319
	cmp	r2, #108
	beq	.L320
	cmp	r2, #37
	beq	.L381
.LVL231:
.L317:
	.loc 23 197 0
	add	r7, r7, #1
.LVL232:
	.loc 23 201 0
	mov	r1, #0
.LVL233:
	.loc 23 139 0
	ldrb	r2, [r7, #0]	@ zero_extendqisi2
	cmp	r2, #0
	bne	.L349
.LVL234:
.L314:
.LBE3091:
.LBE3090:
	.loc 23 231 0
	mov	r0, r8
	add	sp, sp, #12
	ldmfd	sp!, {r4, r5, r6, r7, r8, r9, sl, fp, lr}
	add	sp, sp, #16
	bx	lr
.LVL235:
.L381:
.LBB3132:
.LBB3131:
.LBB3095:
.LBB3096:
	.loc 2 45 0
	ldr	r3, [r6, #-3947]
	mvn	r2, #1032192
	tst	r3, #8192
	beq	.L381
	.loc 2 47 0
	mov	r3, #37
.LBE3096:
.LBE3095:
	.loc 23 144 0
	add	r8, r8, #1
.LVL236:
	.loc 23 145 0
	add	r7, r7, #1
.LVL237:
.LBB3098:
.LBB3097:
	.loc 2 47 0
	str	r3, [r2, #-4031]
.LBE3097:
.LBE3098:
	.loc 23 201 0
	mov	r1, #0
.LVL238:
	b	.L402
.LVL239:
.L316:
	.loc 23 203 0
	cmp	r2, #37
	.loc 23 206 0
	addeq	r7, r7, #1
.LVL240:
	.loc 23 205 0
	moveq	r1, #1
.LVL241:
	.loc 23 203 0
	beq	.L402
.L401:
.LBB3099:
.LBB3094:
	.loc 2 45 0
	ldr	r3, [r6, #-3947]
	tst	r3, #8192
	beq	.L401
	.loc 2 48 0
	cmp	r2, #10
	.loc 2 47 0
	str	r2, [r6, #-4031]
	.loc 2 49 0
	mov	r2, #13
	.loc 2 48 0
	beq	.L401
.LBE3094:
.LBE3099:
	.loc 23 211 0
	add	r8, r8, #1
.LVL242:
	.loc 23 212 0
	add	r7, r7, #1
.LVL243:
	b	.L402
.LVL244:
.L325:
	.loc 23 141 0
	cmp	r2, #117
	beq	.L323
	cmp	r2, #120
	beq	.L324
	cmp	r2, #115
	bne	.L317
	.loc 23 185 0
	ldr	r0, [sl, #0]
	add	sl, sl, #4
.LVL245:
.LBB3100:
.LBB3101:
	.loc 23 21 0
	ldrb	r2, [r0, #0]	@ zero_extendqisi2
	cmp	r2, #0
	beq	.L353
	mov	r1, #0
.LVL246:
.L399:
.LBB3102:
.LBB3103:
	.loc 2 45 0
	ldr	r3, [r6, #-3947]
	tst	r3, #8192
	beq	.L399
	.loc 2 48 0
	cmp	r2, #10
	.loc 2 47 0
	str	r2, [r6, #-4031]
	.loc 2 49 0
	mov	r2, #13
	.loc 2 48 0
	beq	.L399
.LBE3103:
.LBE3102:
	.loc 23 21 0
	ldrb	r2, [r0, #1]!	@ zero_extendqisi2
	add	r1, r1, #1
.LVL247:
	cmp	r2, #0
	bne	.L399
.LVL248:
.L337:
.LBE3101:
.LBE3100:
	.loc 23 185 0
	add	r8, r8, r1
.LVL249:
	.loc 23 186 0
	add	r7, r7, #1
.LVL250:
	.loc 23 201 0
	mov	r1, #0
	b	.L402
.LVL251:
.L324:
	.loc 23 168 0
	ldr	r0, [sl, #0]
	mov	r1, #16
.LVL252:
.L403:
	bl	print_unsigned_long
.LVL253:
	add	sl, sl, #4
.LVL254:
	.loc 23 169 0
	add	r7, r7, #1
.LVL255:
	.loc 23 201 0
	mov	r1, #0
	.loc 23 168 0
	add	r8, r8, r0
.LVL256:
	b	.L402
.LVL257:
.L323:
	.loc 23 163 0
	ldr	r0, [sl, #0]
	mov	r1, #10
.LVL258:
	b	.L403
.LVL259:
.L321:
.LBB3105:
	.loc 23 173 0
	ldr	r0, [sl, #0]
	add	sl, sl, #4
.LVL260:
	.loc 23 174 0
	cmp	r0, #0
	bne	.L329
	mov	r1, r0
.LVL261:
	ldr	r0, .L406
.LVL262:
	.loc 23 21 0
	mov	r2, #40
.LVL263:
.L397:
.LBB3106:
.LBB3107:
.LBB3108:
.LBB3109:
	.loc 2 45 0
	ldr	r3, [r6, #-3947]
	tst	r3, #8192
	beq	.L397
	.loc 2 48 0
	cmp	r2, #10
	.loc 2 47 0
	str	r2, [r6, #-4031]
	.loc 2 49 0
	mov	r2, #13
	.loc 2 48 0
	beq	.L397
.LVL264:
.LBE3109:
.LBE3108:
	.loc 23 21 0
	ldrb	r2, [r0, #1]!	@ zero_extendqisi2
	add	r1, r1, #1
.LVL265:
	cmp	r2, #0
	bne	.L397
.LBE3107:
.LBE3106:
	.loc 23 175 0
	add	r8, r8, r1
.LVL266:
	b	.L317
.LVL267:
.L320:
.LBE3105:
	.loc 23 190 0
	ldrb	r3, [r7, #1]	@ zero_extendqisi2
	cmp	r3, #108
	beq	.L404
.LVL268:
.L341:
	.loc 23 194 0
	add	r7, r7, #3
.LVL269:
	.loc 23 201 0
	mov	r1, #0
	b	.L402
.LVL270:
.L319:
.LBB3114:
	.loc 23 149 0
	ldr	r0, [sl, #0]
	add	sl, sl, #4
.LVL271:
	.loc 23 151 0
	cmp	r0, #0
	blt	.L380
.L327:
	.loc 23 157 0
	mov	r1, #10
.LVL272:
	bl	print_unsigned_long
.LVL273:
	.loc 23 158 0
	add	r7, r7, #1
.LVL274:
	.loc 23 201 0
	mov	r1, #0
	.loc 23 157 0
	add	r8, r8, r0
.LVL275:
	b	.L402
.LVL276:
.L380:
.LBB3115:
.LBB3116:
	.loc 2 45 0
	ldr	r3, [r6, #-3947]
	mvn	r2, #1032192
	tst	r3, #8192
	beq	.L380
	.loc 2 47 0
	mov	r3, #45
.LBE3116:
.LBE3115:
	.loc 23 153 0
	add	r8, r8, #1
.LVL277:
	.loc 23 154 0
	rsb	r0, r0, #0
.LVL278:
.LBB3118:
.LBB3117:
	.loc 2 47 0
	str	r3, [r2, #-4031]
	b	.L327
.LVL279:
.L329:
	ldr	ip, .L406+4
.LBE3117:
.LBE3118:
.LBE3114:
.LBB3119:
	.loc 23 174 0
	mov	r4, #0
	.loc 23 21 0
	mov	r2, #48
.L398:
.LBB3110:
.LBB3111:
.LBB3112:
.LBB3113:
	.loc 2 45 0
	ldr	r3, [r6, #-3947]
	tst	r3, #8192
	beq	.L398
	.loc 2 48 0
	cmp	r2, #10
	.loc 2 47 0
	str	r2, [r6, #-4031]
	.loc 2 49 0
	mov	r2, #13
	.loc 2 48 0
	beq	.L398
.LVL280:
.LBE3113:
.LBE3112:
	.loc 23 21 0
	ldrb	r2, [ip, #1]!	@ zero_extendqisi2
	add	r4, r4, #1
.LVL281:
	cmp	r2, #0
	bne	.L398
.LVL282:
.LBE3111:
.LBE3110:
	.loc 23 178 0
	mov	r1, #16
.LVL283:
	bl	print_unsigned_long
.LVL284:
	.loc 23 177 0
	add	r0, r0, r4
	.loc 23 178 0
	add	r8, r8, r0
.LVL285:
	b	.L317
.LVL286:
.L404:
.LBE3119:
	.loc 23 190 0
	ldrb	r3, [r7, #2]	@ zero_extendqisi2
	cmp	r3, #120
	bne	.L341
.LBB3120:
	.loc 23 191 0
	add	r3, sl, #7
	bic	r3, r3, #7
	add	sl, r3, #8
.LVL287:
	ldrd	r4, [r3]
.LVL288:
.LBB3121:
.LBB3122:
	.loc 23 109 0
	cmp	r5, #0
	.loc 23 106 0
	mov	fp, r4
.LVL289:
	.loc 23 96 0
	moveq	r9, r5
	.loc 23 109 0
	bne	.L405
.LVL290:
.L342:
	.loc 23 121 0
	mov	r0, r4
	mov	r1, #16
	bl	print_unsigned_long
.LVL291:
	add	r0, r0, r9
.LVL292:
.LBE3122:
.LBE3121:
	.loc 23 192 0
	add	r8, r8, r0
.LVL293:
	b	.L341
.LVL294:
.L350:
.LBE3120:
	.loc 23 133 0
	mov	r8, r7
	b	.L314
.LVL295:
.L353:
.LBB3129:
.LBB3104:
	.loc 23 21 0
	mov	r1, r2
.LVL296:
	b	.L337
.LVL297:
.L405:
.LBE3104:
.LBE3129:
.LBB3130:
.LBB3128:
.LBB3127:
	.loc 23 110 0
	mov	r0, r5
	mov	r1, #16
.LVL298:
	bl	print_unsigned_long
.LVL299:
	.loc 23 113 0
	mov	r2, #-268435456
	and	r2, r2, r4
	cmp	r2, #0
	.loc 23 110 0
	mov	r9, r0
.LVL300:
	.loc 23 113 0
	bne	.L342
	mov	r3, #-268435456
.LBB3123:
.LBB3124:
	.loc 2 47 0
	mov	r2, #48
.LVL301:
.L400:
	.loc 2 45 0
	ldr	r1, [r6, #-3947]
	tst	r1, #8192
	beq	.L400
.LBE3124:
.LBE3123:
	.loc 23 116 0
	mov	r3, r3, lsr #4
	.loc 23 113 0
	tst	r3, fp
.LBB3126:
.LBB3125:
	.loc 2 47 0
	str	r2, [r6, #-4031]
.LBE3125:
.LBE3126:
	.loc 23 115 0
	add	r9, r9, #1
.LVL302:
	.loc 23 113 0
	beq	.L400
	b	.L342
.L407:
	.align	2
.L406:
	.word	.LC1
	.word	.LC2
.LBE3127:
.LBE3128:
.LBE3130:
.LBE3131:
.LBE3132:
	.cfi_endproc
.LFE525:
	.size	printf, .-printf
	.align	2
	.global	_assert_fail
	.type	_assert_fail, %function
_assert_fail:
.LFB459:
	.file 24 "/home/zj/seL4/myseL4/kernel/src/assert.c"
	.loc 24 37 0
	.cfi_startproc
	@ Volatile: function does not return.
	@ args = 0, pretend = 0, frame = 0
	@ frame_needed = 0, uses_anonymous_args = 0
.LVL303:
	str	lr, [sp, #-4]!
.LCFI19:
	.cfi_def_cfa_offset 4
	.cfi_offset 14, -4
	sub	sp, sp, #12
.LCFI20:
	.cfi_def_cfa_offset 16
	.loc 24 37 0
	mov	lr, r1
	mov	ip, r2
	.loc 24 38 0
	mov	r1, r0
.LVL304:
	mov	r2, lr
.LVL305:
	str	r3, [sp, #0]
	ldr	r0, .L409
.LVL306:
	mov	r3, ip
.LVL307:
	bl	printf
.LVL308:
	.loc 24 44 0
	bl	halt
.LVL309:
.L410:
	.align	2
.L409:
	.word	.LC3
	.cfi_endproc
.LFE459:
	.size	_assert_fail, .-_assert_fail
	.section	.text.unlikely,"ax",%progbits
	.align	2
	.type	vm_attributes_new.part.25, %function
vm_attributes_new.part.25:
.LFB686:
	.file 25 "./arch/object/structures_gen.h"
	.loc 25 133 0
	.cfi_startproc
	@ Volatile: function does not return.
	@ args = 0, pretend = 0, frame = 0
	@ frame_needed = 0, uses_anonymous_args = 0
	stmfd	sp!, {r3, lr}
.LCFI21:
	.cfi_def_cfa_offset 8
	.cfi_offset 3, -8
	.cfi_offset 14, -4
	.loc 25 139 0
	mov	r2, #139
	ldr	r0, .L412
	ldr	r1, .L412+4
	ldr	r3, .L412+8
	bl	_assert_fail
.LVL310:
.L413:
	.align	2
.L412:
	.word	.LC4
	.word	.LC5
	.word	.LANCHOR3
	.cfi_endproc
.LFE686:
	.size	vm_attributes_new.part.25, .-vm_attributes_new.part.25
	.align	2
	.type	cap_untyped_cap_ptr_set_capFreeIndex.part.26, %function
cap_untyped_cap_ptr_set_capFreeIndex.part.26:
.LFB687:
	.loc 25 835 0
	.cfi_startproc
	@ Volatile: function does not return.
	@ args = 0, pretend = 0, frame = 0
	@ frame_needed = 0, uses_anonymous_args = 0
	stmfd	sp!, {r3, lr}
.LCFI22:
	.cfi_def_cfa_offset 8
	.cfi_offset 3, -8
	.cfi_offset 14, -4
	.loc 25 837 0
	ldr	r0, .L415
	ldr	r1, .L415+4
	ldr	r2, .L415+8
	ldr	r3, .L415+12
	bl	_assert_fail
.LVL311:
.L416:
	.align	2
.L415:
	.word	.LC6
	.word	.LC5
	.word	838
	.word	.LANCHOR3+20
	.cfi_endproc
.LFE687:
	.size	cap_untyped_cap_ptr_set_capFreeIndex.part.26, .-cap_untyped_cap_ptr_set_capFreeIndex.part.26
	.align	2
	.type	getSyscallArg.part.27, %function
getSyscallArg.part.27:
.LFB688:
	.file 26 "/home/zj/seL4/myseL4/kernel/include/api/syscall.h"
	.loc 26 27 0
	.cfi_startproc
	@ Volatile: function does not return.
	@ args = 0, pretend = 0, frame = 0
	@ frame_needed = 0, uses_anonymous_args = 0
	stmfd	sp!, {r3, lr}
.LCFI23:
	.cfi_def_cfa_offset 8
	.cfi_offset 3, -8
	.cfi_offset 14, -4
	.loc 26 33 0
	mov	r2, #33
	ldr	r0, .L418
	ldr	r1, .L418+4
	ldr	r3, .L418+8
	bl	_assert_fail
.LVL312:
.L419:
	.align	2
.L418:
	.word	.LC7
	.word	.LC8
	.word	.LANCHOR3+60
	.cfi_endproc
.LFE688:
	.size	getSyscallArg.part.27, .-getSyscallArg.part.27
	.align	2
	.type	lookup_fault_missing_capability_new.part.28, %function
lookup_fault_missing_capability_new.part.28:
.LFB689:
	.loc 25 2028 0
	.cfi_startproc
	@ Volatile: function does not return.
	@ args = 0, pretend = 0, frame = 0
	@ frame_needed = 0, uses_anonymous_args = 0
	stmfd	sp!, {r3, lr}
.LCFI24:
	.cfi_def_cfa_offset 8
	.cfi_offset 3, -8
	.cfi_offset 14, -4
	.loc 25 2035 0
	ldr	r0, .L421
	ldr	r1, .L421+4
	ldr	r2, .L421+8
	ldr	r3, .L421+12
	bl	_assert_fail
.LVL313:
.L422:
	.align	2
.L421:
	.word	.LC9
	.word	.LC5
	.word	2035
	.word	.LANCHOR3+76
	.cfi_endproc
.LFE689:
	.size	lookup_fault_missing_capability_new.part.28, .-lookup_fault_missing_capability_new.part.28
	.align	2
	.type	cap_cnode_cap_get_capCNodeRadix.part.29, %function
cap_cnode_cap_get_capCNodeRadix.part.29:
.LFB690:
	.loc 25 1181 0
	.cfi_startproc
	@ Volatile: function does not return.
	@ args = 0, pretend = 0, frame = 0
	@ frame_needed = 0, uses_anonymous_args = 0
	stmfd	sp!, {r3, lr}
.LCFI25:
	.cfi_def_cfa_offset 8
	.cfi_offset 3, -8
	.cfi_offset 14, -4
	.loc 25 1182 0
	ldr	r0, .L424
	ldr	r1, .L424+4
	ldr	r2, .L424+8
	ldr	r3, .L424+12
	bl	_assert_fail
.LVL314:
.L425:
	.align	2
.L424:
	.word	.LC10
	.word	.LC5
	.word	1183
	.word	.LANCHOR3+112
	.cfi_endproc
.LFE690:
	.size	cap_cnode_cap_get_capCNodeRadix.part.29, .-cap_cnode_cap_get_capCNodeRadix.part.29
	.align	2
	.type	cap_cnode_cap_get_capCNodePtr.isra.30.part.31, %function
cap_cnode_cap_get_capCNodePtr.isra.30.part.31:
.LFB692:
	.loc 25 1209 0
	.cfi_startproc
	@ Volatile: function does not return.
	@ args = 0, pretend = 0, frame = 0
	@ frame_needed = 0, uses_anonymous_args = 0
	stmfd	sp!, {r3, lr}
.LCFI26:
	.cfi_def_cfa_offset 8
	.cfi_offset 3, -8
	.cfi_offset 14, -4
	.loc 25 1210 0
	ldr	r0, .L427
	ldr	r1, .L427+4
	ldr	r2, .L427+8
	ldr	r3, .L427+12
	bl	_assert_fail
.LVL315:
.L428:
	.align	2
.L427:
	.word	.LC10
	.word	.LC5
	.word	1211
	.word	.LANCHOR3+144
	.cfi_endproc
.LFE692:
	.size	cap_cnode_cap_get_capCNodePtr.isra.30.part.31, .-cap_cnode_cap_get_capCNodePtr.isra.30.part.31
	.align	2
	.type	cap_untyped_cap_get_capBlockSize.part.32, %function
cap_untyped_cap_get_capBlockSize.part.32:
.LFB693:
	.loc 25 848 0
	.cfi_startproc
	@ Volatile: function does not return.
	@ args = 0, pretend = 0, frame = 0
	@ frame_needed = 0, uses_anonymous_args = 0
	stmfd	sp!, {r3, lr}
.LCFI27:
	.cfi_def_cfa_offset 8
	.cfi_offset 3, -8
	.cfi_offset 14, -4
	.loc 25 849 0
	ldr	r0, .L430
	ldr	r1, .L430+4
	ldr	r2, .L430+8
	ldr	r3, .L430+12
	bl	_assert_fail
.LVL316:
.L431:
	.align	2
.L430:
	.word	.LC11
	.word	.LC5
	.word	850
	.word	.LANCHOR3+176
	.cfi_endproc
.LFE693:
	.size	cap_untyped_cap_get_capBlockSize.part.32, .-cap_untyped_cap_get_capBlockSize.part.32
	.align	2
	.type	cap_untyped_cap_get_capPtr.isra.33.part.34, %function
cap_untyped_cap_get_capPtr.isra.33.part.34:
.LFB695:
	.loc 25 864 0
	.cfi_startproc
	@ Volatile: function does not return.
	@ args = 0, pretend = 0, frame = 0
	@ frame_needed = 0, uses_anonymous_args = 0
	stmfd	sp!, {r3, lr}
.LCFI28:
	.cfi_def_cfa_offset 8
	.cfi_offset 3, -8
	.cfi_offset 14, -4
	.loc 25 865 0
	ldr	r0, .L433
	ldr	r1, .L433+4
	ldr	r2, .L433+8
	ldr	r3, .L433+12
	bl	_assert_fail
.LVL317:
.L434:
	.align	2
.L433:
	.word	.LC11
	.word	.LC5
	.word	866
	.word	.LANCHOR3+212
	.cfi_endproc
.LFE695:
	.size	cap_untyped_cap_get_capPtr.isra.33.part.34, .-cap_untyped_cap_get_capPtr.isra.33.part.34
	.align	2
	.type	message_info_new.part.35, %function
message_info_new.part.35:
.LFB696:
	.file 27 "./api/types_gen.h"
	.loc 27 14 0
	.cfi_startproc
	@ Volatile: function does not return.
	@ args = 0, pretend = 0, frame = 0
	@ frame_needed = 0, uses_anonymous_args = 0
	stmfd	sp!, {r3, lr}
.LCFI29:
	.cfi_def_cfa_offset 8
	.cfi_offset 3, -8
	.cfi_offset 14, -4
	.loc 27 20 0
	mov	r2, #20
	ldr	r0, .L436
	ldr	r1, .L436+4
	ldr	r3, .L436+8
	bl	_assert_fail
.LVL318:
.L437:
	.align	2
.L436:
	.word	.LC12
	.word	.LC13
	.word	.LANCHOR3+240
	.cfi_endproc
.LFE696:
	.size	message_info_new.part.35, .-message_info_new.part.35
	.align	2
	.type	cap_thread_cap_new.part.36, %function
cap_thread_cap_new.part.36:
.LFB697:
	.loc 25 1217 0
	.cfi_startproc
	@ Volatile: function does not return.
	@ args = 0, pretend = 0, frame = 0
	@ frame_needed = 0, uses_anonymous_args = 0
	stmfd	sp!, {r3, lr}
.LCFI30:
	.cfi_def_cfa_offset 8
	.cfi_offset 3, -8
	.cfi_offset 14, -4
	.loc 25 1224 0
	ldr	r0, .L439
	ldr	r1, .L439+4
	ldr	r2, .L439+8
	ldr	r3, .L439+12
	bl	_assert_fail
.LVL319:
.L440:
	.align	2
.L439:
	.word	.LC14
	.word	.LC5
	.word	1224
	.word	.LANCHOR3+260
	.cfi_endproc
.LFE697:
	.size	cap_thread_cap_new.part.36, .-cap_thread_cap_new.part.36
	.align	2
	.type	cap_thread_cap_get_capTCBPtr.isra.37.part.38, %function
cap_thread_cap_get_capTCBPtr.isra.37.part.38:
.LFB699:
	.loc 25 1234 0
	.cfi_startproc
	@ Volatile: function does not return.
	@ args = 0, pretend = 0, frame = 0
	@ frame_needed = 0, uses_anonymous_args = 0
	stmfd	sp!, {r3, lr}
.LCFI31:
	.cfi_def_cfa_offset 8
	.cfi_offset 3, -8
	.cfi_offset 14, -4
	.loc 25 1235 0
	ldr	r0, .L442
	ldr	r1, .L442+4
	ldr	r2, .L442+8
	ldr	r3, .L442+12
	bl	_assert_fail
.LVL320:
.L443:
	.align	2
.L442:
	.word	.LC15
	.word	.LC5
	.word	1236
	.word	.LANCHOR3+280
	.cfi_endproc
.LFE699:
	.size	cap_thread_cap_get_capTCBPtr.isra.37.part.38, .-cap_thread_cap_get_capTCBPtr.isra.37.part.38
	.align	2
	.type	fault_cap_fault_new.part.39, %function
fault_cap_fault_new.part.39:
.LFB700:
	.loc 25 429 0
	.cfi_startproc
	@ Volatile: function does not return.
	@ args = 0, pretend = 0, frame = 0
	@ frame_needed = 0, uses_anonymous_args = 0
	stmfd	sp!, {r3, lr}
.LCFI32:
	.cfi_def_cfa_offset 8
	.cfi_offset 3, -8
	.cfi_offset 14, -4
	.loc 25 437 0
	ldr	r0, .L445
	ldr	r1, .L445+4
	ldr	r2, .L445+8
	ldr	r3, .L445+12
	bl	_assert_fail
.LVL321:
.L446:
	.align	2
.L445:
	.word	.LC16
	.word	.LC5
	.word	437
	.word	.LANCHOR3+312
	.cfi_endproc
.LFE700:
	.size	fault_cap_fault_new.part.39, .-fault_cap_fault_new.part.39
	.align	2
	.type	cap_reply_cap_get_capReplyMaster.isra.40.part.41, %function
cap_reply_cap_get_capReplyMaster.isra.40.part.41:
.LFB702:
	.loc 25 1127 0
	.cfi_startproc
	@ Volatile: function does not return.
	@ args = 0, pretend = 0, frame = 0
	@ frame_needed = 0, uses_anonymous_args = 0
	stmfd	sp!, {r3, lr}
.LCFI33:
	.cfi_def_cfa_offset 8
	.cfi_offset 3, -8
	.cfi_offset 14, -4
	.loc 25 1128 0
	ldr	r0, .L448
	ldr	r1, .L448+4
	ldr	r2, .L448+8
	ldr	r3, .L448+12
	bl	_assert_fail
.LVL322:
.L449:
	.align	2
.L448:
	.word	.LC17
	.word	.LC5
	.word	1129
	.word	.LANCHOR3+332
	.cfi_endproc
.LFE702:
	.size	cap_reply_cap_get_capReplyMaster.isra.40.part.41, .-cap_reply_cap_get_capReplyMaster.isra.40.part.41
	.align	2
	.type	cap_reply_cap_get_capTCBPtr.isra.42.part.43, %function
cap_reply_cap_get_capTCBPtr.isra.42.part.43:
.LFB704:
	.loc 25 1119 0
	.cfi_startproc
	@ Volatile: function does not return.
	@ args = 0, pretend = 0, frame = 0
	@ frame_needed = 0, uses_anonymous_args = 0
	stmfd	sp!, {r3, lr}
.LCFI34:
	.cfi_def_cfa_offset 8
	.cfi_offset 3, -8
	.cfi_offset 14, -4
	.loc 25 1120 0
	ldr	r0, .L451
	ldr	r1, .L451+4
	ldr	r2, .L451+8
	ldr	r3, .L451+12
	bl	_assert_fail
.LVL323:
.L452:
	.align	2
.L451:
	.word	.LC17
	.word	.LC5
	.word	1121
	.word	.LANCHOR3+368
	.cfi_endproc
.LFE704:
	.size	cap_reply_cap_get_capTCBPtr.isra.42.part.43, .-cap_reply_cap_get_capTCBPtr.isra.42.part.43
	.align	2
	.type	cap_reply_cap_new.part.44, %function
cap_reply_cap_new.part.44:
.LFB705:
	.loc 25 1083 0
	.cfi_startproc
	@ Volatile: function does not return.
	@ args = 0, pretend = 0, frame = 0
	@ frame_needed = 0, uses_anonymous_args = 0
	stmfd	sp!, {r3, lr}
.LCFI35:
	.cfi_def_cfa_offset 8
	.cfi_offset 3, -8
	.cfi_offset 14, -4
	.loc 25 1090 0
	ldr	r0, .L454
	ldr	r1, .L454+4
	ldr	r2, .L454+8
	ldr	r3, .L454+12
	bl	_assert_fail
.LVL324:
.L455:
	.align	2
.L454:
	.word	.LC18
	.word	.LC5
	.word	1090
	.word	.LANCHOR3+396
	.cfi_endproc
.LFE705:
	.size	cap_reply_cap_new.part.44, .-cap_reply_cap_new.part.44
	.align	2
	.type	thread_state_ptr_set_tcbQueued.part.45, %function
thread_state_ptr_set_tcbQueued.part.45:
.LFB706:
	.loc 25 249 0
	.cfi_startproc
	@ Volatile: function does not return.
	@ args = 0, pretend = 0, frame = 0
	@ frame_needed = 0, uses_anonymous_args = 0
	stmfd	sp!, {r3, lr}
.LCFI36:
	.cfi_def_cfa_offset 8
	.cfi_offset 3, -8
	.cfi_offset 14, -4
	.loc 25 251 0
	mov	r2, #251
	ldr	r0, .L457
	ldr	r1, .L457+4
	ldr	r3, .L457+8
	bl	_assert_fail
.LVL325:
.L458:
	.align	2
.L457:
	.word	.LC19
	.word	.LC5
	.word	.LANCHOR3+416
	.cfi_endproc
.LFE706:
	.size	thread_state_ptr_set_tcbQueued.part.45, .-thread_state_ptr_set_tcbQueued.part.45
	.align	2
	.type	cap_endpoint_cap_get_capCanSend.part.50, %function
cap_endpoint_cap_get_capCanSend.part.50:
.LFB711:
	.loc 25 949 0
	.cfi_startproc
	@ Volatile: function does not return.
	@ args = 0, pretend = 0, frame = 0
	@ frame_needed = 0, uses_anonymous_args = 0
	stmfd	sp!, {r3, lr}
.LCFI37:
	.cfi_def_cfa_offset 8
	.cfi_offset 3, -8
	.cfi_offset 14, -4
	.loc 25 950 0
	ldr	r0, .L460
	ldr	r1, .L460+4
	ldr	r2, .L460+8
	ldr	r3, .L460+12
	bl	_assert_fail
.LVL326:
.L461:
	.align	2
.L460:
	.word	.LC20
	.word	.LC5
	.word	951
	.word	.LANCHOR3+448
	.cfi_endproc
.LFE711:
	.size	cap_endpoint_cap_get_capCanSend.part.50, .-cap_endpoint_cap_get_capCanSend.part.50
	.align	2
	.type	cap_endpoint_cap_get_capEPPtr.part.51, %function
cap_endpoint_cap_get_capEPPtr.part.51:
.LFB712:
	.loc 25 901 0
	.cfi_startproc
	@ Volatile: function does not return.
	@ args = 0, pretend = 0, frame = 0
	@ frame_needed = 0, uses_anonymous_args = 0
	stmfd	sp!, {r3, lr}
.LCFI38:
	.cfi_def_cfa_offset 8
	.cfi_offset 3, -8
	.cfi_offset 14, -4
	.loc 25 902 0
	ldr	r0, .L463
	ldr	r1, .L463+4
	ldr	r2, .L463+8
	ldr	r3, .L463+12
	bl	_assert_fail
.LVL327:
.L464:
	.align	2
.L463:
	.word	.LC20
	.word	.LC5
	.word	903
	.word	.LANCHOR3+480
	.cfi_endproc
.LFE712:
	.size	cap_endpoint_cap_get_capEPPtr.part.51, .-cap_endpoint_cap_get_capEPPtr.part.51
	.align	2
	.type	cap_endpoint_cap_get_capEPBadge.isra.52.part.53, %function
cap_endpoint_cap_get_capEPBadge.isra.52.part.53:
.LFB714:
	.loc 25 969 0
	.cfi_startproc
	@ Volatile: function does not return.
	@ args = 0, pretend = 0, frame = 0
	@ frame_needed = 0, uses_anonymous_args = 0
	stmfd	sp!, {r3, lr}
.LCFI39:
	.cfi_def_cfa_offset 8
	.cfi_offset 3, -8
	.cfi_offset 14, -4
	.loc 25 970 0
	ldr	r0, .L466
	ldr	r1, .L466+4
	ldr	r2, .L466+8
	ldr	r3, .L466+12
	bl	_assert_fail
.LVL328:
.L467:
	.align	2
.L466:
	.word	.LC20
	.word	.LC5
	.word	971
	.word	.LANCHOR3+512
	.cfi_endproc
.LFE714:
	.size	cap_endpoint_cap_get_capEPBadge.isra.52.part.53, .-cap_endpoint_cap_get_capEPBadge.isra.52.part.53
	.align	2
	.type	cap_endpoint_cap_get_capCanGrant.part.54, %function
cap_endpoint_cap_get_capCanGrant.part.54:
.LFB715:
	.loc 25 909 0
	.cfi_startproc
	@ Volatile: function does not return.
	@ args = 0, pretend = 0, frame = 0
	@ frame_needed = 0, uses_anonymous_args = 0
	stmfd	sp!, {r3, lr}
.LCFI40:
	.cfi_def_cfa_offset 8
	.cfi_offset 3, -8
	.cfi_offset 14, -4
	.loc 25 910 0
	ldr	r0, .L469
	ldr	r1, .L469+4
	ldr	r2, .L469+8
	ldr	r3, .L469+12
	bl	_assert_fail
.LVL329:
.L470:
	.align	2
.L469:
	.word	.LC20
	.word	.LC5
	.word	911
	.word	.LANCHOR3+544
	.cfi_endproc
.LFE715:
	.size	cap_endpoint_cap_get_capCanGrant.part.54, .-cap_endpoint_cap_get_capCanGrant.part.54
	.align	2
	.type	cap_async_endpoint_cap_get_capAEPCanSend.part.55, %function
cap_async_endpoint_cap_get_capAEPCanSend.part.55:
.LFB716:
	.loc 25 1055 0
	.cfi_startproc
	@ Volatile: function does not return.
	@ args = 0, pretend = 0, frame = 0
	@ frame_needed = 0, uses_anonymous_args = 0
	stmfd	sp!, {r3, lr}
.LCFI41:
	.cfi_def_cfa_offset 8
	.cfi_offset 3, -8
	.cfi_offset 14, -4
	.loc 25 1056 0
	ldr	r0, .L472
	ldr	r1, .L472+4
	ldr	r2, .L472+8
	ldr	r3, .L472+12
	bl	_assert_fail
.LVL330:
.L473:
	.align	2
.L472:
	.word	.LC21
	.word	.LC5
	.word	1057
	.word	.LANCHOR3+580
	.cfi_endproc
.LFE716:
	.size	cap_async_endpoint_cap_get_capAEPCanSend.part.55, .-cap_async_endpoint_cap_get_capAEPCanSend.part.55
	.align	2
	.type	cap_async_endpoint_cap_get_capAEPPtr.isra.56.part.57, %function
cap_async_endpoint_cap_get_capAEPPtr.isra.56.part.57:
.LFB718:
	.loc 25 1075 0
	.cfi_startproc
	@ Volatile: function does not return.
	@ args = 0, pretend = 0, frame = 0
	@ frame_needed = 0, uses_anonymous_args = 0
	stmfd	sp!, {r3, lr}
.LCFI42:
	.cfi_def_cfa_offset 8
	.cfi_offset 3, -8
	.cfi_offset 14, -4
	.loc 25 1076 0
	ldr	r0, .L475
	ldr	r1, .L475+4
	ldr	r2, .L475+8
	ldr	r3, .L475+12
	bl	_assert_fail
.LVL331:
.L476:
	.align	2
.L475:
	.word	.LC21
	.word	.LC5
	.word	1077
	.word	.LANCHOR3+624
	.cfi_endproc
.LFE718:
	.size	cap_async_endpoint_cap_get_capAEPPtr.isra.56.part.57, .-cap_async_endpoint_cap_get_capAEPPtr.isra.56.part.57
	.align	2
	.type	cap_async_endpoint_cap_get_capAEPBadge.part.58, %function
cap_async_endpoint_cap_get_capAEPBadge.part.58:
.LFB719:
	.loc 25 1015 0
	.cfi_startproc
	@ Volatile: function does not return.
	@ args = 0, pretend = 0, frame = 0
	@ frame_needed = 0, uses_anonymous_args = 0
	stmfd	sp!, {r3, lr}
.LCFI43:
	.cfi_def_cfa_offset 8
	.cfi_offset 3, -8
	.cfi_offset 14, -4
	.loc 25 1016 0
	ldr	r0, .L478
	ldr	r1, .L478+4
	ldr	r2, .L478+8
	ldr	r3, .L478+12
	bl	_assert_fail
.LVL332:
.L479:
	.align	2
.L478:
	.word	.LC21
	.word	.LC5
	.word	1017
	.word	.LANCHOR3+664
	.cfi_endproc
.LFE719:
	.size	cap_async_endpoint_cap_get_capAEPBadge.part.58, .-cap_async_endpoint_cap_get_capAEPBadge.part.58
	.align	2
	.type	cap_irq_handler_cap_get_capIRQ.part.59, %function
cap_irq_handler_cap_get_capIRQ.part.59:
.LFB720:
	.loc 25 1760 0
	.cfi_startproc
	@ Volatile: function does not return.
	@ args = 0, pretend = 0, frame = 0
	@ frame_needed = 0, uses_anonymous_args = 0
	stmfd	sp!, {r3, lr}
.LCFI44:
	.cfi_def_cfa_offset 8
	.cfi_offset 3, -8
	.cfi_offset 14, -4
	.loc 25 1761 0
	ldr	r0, .L481
	ldr	r1, .L481+4
	ldr	r2, .L481+8
	ldr	r3, .L481+12
	bl	_assert_fail
.LVL333:
.L482:
	.align	2
.L481:
	.word	.LC22
	.word	.LC5
	.word	1762
	.word	.LANCHOR3+704
	.cfi_endproc
.LFE720:
	.size	cap_irq_handler_cap_get_capIRQ.part.59, .-cap_irq_handler_cap_get_capIRQ.part.59
	.align	2
	.type	cap_cnode_cap_new.part.60, %function
cap_cnode_cap_new.part.60:
.LFB721:
	.loc 25 1135 0
	.cfi_startproc
	@ Volatile: function does not return.
	@ args = 0, pretend = 0, frame = 0
	@ frame_needed = 0, uses_anonymous_args = 0
	stmfd	sp!, {r3, lr}
.LCFI45:
	.cfi_def_cfa_offset 8
	.cfi_offset 3, -8
	.cfi_offset 14, -4
	.loc 25 1142 0
	ldr	r0, .L484
	ldr	r1, .L484+4
	ldr	r2, .L484+8
	ldr	r3, .L484+12
	bl	_assert_fail
.LVL334:
.L485:
	.align	2
.L484:
	.word	.LC23
	.word	.LC5
	.word	1142
	.word	.LANCHOR3+736
	.cfi_endproc
.LFE721:
	.size	cap_cnode_cap_new.part.60, .-cap_cnode_cap_new.part.60
	.align	2
	.type	cap_untyped_cap_new.part.61, %function
cap_untyped_cap_new.part.61:
.LFB722:
	.loc 25 804 0
	.cfi_startproc
	@ Volatile: function does not return.
	@ args = 0, pretend = 0, frame = 0
	@ frame_needed = 0, uses_anonymous_args = 0
	stmfd	sp!, {r3, lr}
.LCFI46:
	.cfi_def_cfa_offset 8
	.cfi_offset 3, -8
	.cfi_offset 14, -4
	.loc 25 811 0
	ldr	r0, .L487
	ldr	r1, .L487+4
	ldr	r2, .L487+8
	ldr	r3, .L487+12
	bl	_assert_fail
.LVL335:
.L488:
	.align	2
.L487:
	.word	.LC24
	.word	.LC5
	.word	811
	.word	.LANCHOR3+756
	.cfi_endproc
.LFE722:
	.size	cap_untyped_cap_new.part.61, .-cap_untyped_cap_new.part.61
	.align	2
	.type	cap_endpoint_cap_get_capCanReceive.part.62, %function
cap_endpoint_cap_get_capCanReceive.part.62:
.LFB723:
	.loc 25 929 0
	.cfi_startproc
	@ Volatile: function does not return.
	@ args = 0, pretend = 0, frame = 0
	@ frame_needed = 0, uses_anonymous_args = 0
	stmfd	sp!, {r3, lr}
.LCFI47:
	.cfi_def_cfa_offset 8
	.cfi_offset 3, -8
	.cfi_offset 14, -4
	.loc 25 930 0
	ldr	r0, .L490
	ldr	r1, .L490+4
	ldr	r2, .L490+8
	ldr	r3, .L490+12
	bl	_assert_fail
.LVL336:
.L491:
	.align	2
.L490:
	.word	.LC20
	.word	.LC5
	.word	931
	.word	.LANCHOR3+776
	.cfi_endproc
.LFE723:
	.size	cap_endpoint_cap_get_capCanReceive.part.62, .-cap_endpoint_cap_get_capCanReceive.part.62
	.align	2
	.type	cap_async_endpoint_cap_get_capAEPCanReceive.part.63, %function
cap_async_endpoint_cap_get_capAEPCanReceive.part.63:
.LFB724:
	.loc 25 1035 0
	.cfi_startproc
	@ Volatile: function does not return.
	@ args = 0, pretend = 0, frame = 0
	@ frame_needed = 0, uses_anonymous_args = 0
	stmfd	sp!, {r3, lr}
.LCFI48:
	.cfi_def_cfa_offset 8
	.cfi_offset 3, -8
	.cfi_offset 14, -4
	.loc 25 1036 0
	ldr	r0, .L493
	ldr	r1, .L493+4
	ldr	r2, .L493+8
	ldr	r3, .L493+12
	bl	_assert_fail
.LVL337:
.L494:
	.align	2
.L493:
	.word	.LC21
	.word	.LC5
	.word	1037
	.word	.LANCHOR3+812
	.cfi_endproc
.LFE724:
	.size	cap_async_endpoint_cap_get_capAEPCanReceive.part.63, .-cap_async_endpoint_cap_get_capAEPCanReceive.part.63
	.align	2
	.type	cap_small_frame_cap_get_capFBasePtr.isra.64.part.65, %function
cap_small_frame_cap_get_capFBasePtr.isra.64.part.65:
.LFB726:
	.loc 25 1351 0
	.cfi_startproc
	@ Volatile: function does not return.
	@ args = 0, pretend = 0, frame = 0
	@ frame_needed = 0, uses_anonymous_args = 0
	stmfd	sp!, {r3, lr}
.LCFI49:
	.cfi_def_cfa_offset 8
	.cfi_offset 3, -8
	.cfi_offset 14, -4
	.loc 25 1352 0
	ldr	r0, .L496
	ldr	r1, .L496+4
	ldr	r2, .L496+8
	ldr	r3, .L496+12
	bl	_assert_fail
.LVL338:
.L497:
	.align	2
.L496:
	.word	.LC25
	.word	.LC5
	.word	1353
	.word	.LANCHOR3+856
	.cfi_endproc
.LFE726:
	.size	cap_small_frame_cap_get_capFBasePtr.isra.64.part.65, .-cap_small_frame_cap_get_capFBasePtr.isra.64.part.65
	.align	2
	.type	cap_frame_cap_get_capFBasePtr.isra.66.part.67, %function
cap_frame_cap_get_capFBasePtr.isra.66.part.67:
.LFB728:
	.loc 25 1479 0
	.cfi_startproc
	@ Volatile: function does not return.
	@ args = 0, pretend = 0, frame = 0
	@ frame_needed = 0, uses_anonymous_args = 0
	stmfd	sp!, {r3, lr}
.LCFI50:
	.cfi_def_cfa_offset 8
	.cfi_offset 3, -8
	.cfi_offset 14, -4
	.loc 25 1480 0
	ldr	r0, .L499
	ldr	r1, .L499+4
	ldr	r2, .L499+8
	ldr	r3, .L499+12
	bl	_assert_fail
.LVL339:
.L500:
	.align	2
.L499:
	.word	.LC26
	.word	.LC5
	.word	1481
	.word	.LANCHOR3+892
	.cfi_endproc
.LFE728:
	.size	cap_frame_cap_get_capFBasePtr.isra.66.part.67, .-cap_frame_cap_get_capFBasePtr.isra.66.part.67
	.align	2
	.type	generic_frame_cap_get_capFBasePtr.isra.68.part.69, %function
generic_frame_cap_get_capFBasePtr.isra.68.part.69:
.LFB730:
	.file 28 "/home/zj/seL4/myseL4/kernel/include/arch/arm/arch/object/structures.h"
	.loc 28 384 0
	.cfi_startproc
	@ Volatile: function does not return.
	@ args = 0, pretend = 0, frame = 0
	@ frame_needed = 0, uses_anonymous_args = 0
	stmfd	sp!, {r3, lr}
.LCFI51:
	.cfi_def_cfa_offset 8
	.cfi_offset 3, -8
	.cfi_offset 14, -4
	.loc 28 389 0
	ldr	r0, .L502
	ldr	r1, .L502+4
	ldr	r2, .L502+8
	ldr	r3, .L502+12
	bl	_assert_fail
.LVL340:
.L503:
	.align	2
.L502:
	.word	.LC27
	.word	.LC28
	.word	390
	.word	.LANCHOR3+924
	.cfi_endproc
.LFE730:
	.size	generic_frame_cap_get_capFBasePtr.isra.68.part.69, .-generic_frame_cap_get_capFBasePtr.isra.68.part.69
	.align	2
	.type	cap_page_table_cap_get_capPTBasePtr.isra.70.part.71, %function
cap_page_table_cap_get_capPTBasePtr.isra.70.part.71:
.LFB732:
	.loc 25 1622 0
	.cfi_startproc
	@ Volatile: function does not return.
	@ args = 0, pretend = 0, frame = 0
	@ frame_needed = 0, uses_anonymous_args = 0
	stmfd	sp!, {r3, lr}
.LCFI52:
	.cfi_def_cfa_offset 8
	.cfi_offset 3, -8
	.cfi_offset 14, -4
	.loc 25 1623 0
	ldr	r0, .L505
	ldr	r1, .L505+4
	ldr	r2, .L505+8
	ldr	r3, .L505+12
	bl	_assert_fail
.LVL341:
.L506:
	.align	2
.L505:
	.word	.LC29
	.word	.LC5
	.word	1624
	.word	.LANCHOR3+960
	.cfi_endproc
.LFE732:
	.size	cap_page_table_cap_get_capPTBasePtr.isra.70.part.71, .-cap_page_table_cap_get_capPTBasePtr.isra.70.part.71
	.align	2
	.type	cap_page_directory_cap_get_capPDBasePtr.isra.72.part.73, %function
cap_page_directory_cap_get_capPDBasePtr.isra.72.part.73:
.LFB734:
	.loc 25 1674 0
	.cfi_startproc
	@ Volatile: function does not return.
	@ args = 0, pretend = 0, frame = 0
	@ frame_needed = 0, uses_anonymous_args = 0
	stmfd	sp!, {r3, lr}
.LCFI53:
	.cfi_def_cfa_offset 8
	.cfi_offset 3, -8
	.cfi_offset 14, -4
	.loc 25 1675 0
	ldr	r0, .L508
	ldr	r1, .L508+4
	ldr	r2, .L508+8
	ldr	r3, .L508+12
	bl	_assert_fail
.LVL342:
.L509:
	.align	2
.L508:
	.word	.LC30
	.word	.LC5
	.word	1676
	.word	.LANCHOR3+996
	.cfi_endproc
.LFE734:
	.size	cap_page_directory_cap_get_capPDBasePtr.isra.72.part.73, .-cap_page_directory_cap_get_capPDBasePtr.isra.72.part.73
	.align	2
	.type	cap_asid_pool_cap_get_capASIDPool.isra.74.part.75, %function
cap_asid_pool_cap_get_capASIDPool.isra.74.part.75:
.LFB736:
	.loc 25 1515 0
	.cfi_startproc
	@ Volatile: function does not return.
	@ args = 0, pretend = 0, frame = 0
	@ frame_needed = 0, uses_anonymous_args = 0
	stmfd	sp!, {r3, lr}
.LCFI54:
	.cfi_def_cfa_offset 8
	.cfi_offset 3, -8
	.cfi_offset 14, -4
	.loc 25 1516 0
	ldr	r0, .L511
	ldr	r1, .L511+4
	ldr	r2, .L511+8
	ldr	r3, .L511+12
	bl	_assert_fail
.LVL343:
.L512:
	.align	2
.L511:
	.word	.LC31
	.word	.LC5
	.word	1517
	.word	.LANCHOR3+1036
	.cfi_endproc
.LFE736:
	.size	cap_asid_pool_cap_get_capASIDPool.isra.74.part.75, .-cap_asid_pool_cap_get_capASIDPool.isra.74.part.75
	.align	2
	.type	cap_zombie_cap_get_capZombieType.isra.76.part.77, %function
cap_zombie_cap_get_capZombieType.isra.76.part.77:
.LFB738:
	.loc 25 1806 0
	.cfi_startproc
	@ Volatile: function does not return.
	@ args = 0, pretend = 0, frame = 0
	@ frame_needed = 0, uses_anonymous_args = 0
	stmfd	sp!, {r3, lr}
.LCFI55:
	.cfi_def_cfa_offset 8
	.cfi_offset 3, -8
	.cfi_offset 14, -4
	.loc 25 1807 0
	mov	r2, #1808
	ldr	r0, .L514
	ldr	r1, .L514+4
	ldr	r3, .L514+8
	bl	_assert_fail
.LVL344:
.L515:
	.align	2
.L514:
	.word	.LC32
	.word	.LC5
	.word	.LANCHOR3+1072
	.cfi_endproc
.LFE738:
	.size	cap_zombie_cap_get_capZombieType.isra.76.part.77, .-cap_zombie_cap_get_capZombieType.isra.76.part.77
	.align	2
	.type	cap_zombie_cap_get_capZombieID.part.79, %function
cap_zombie_cap_get_capZombieID.part.79:
.LFB740:
	.loc 25 1786 0
	.cfi_startproc
	@ Volatile: function does not return.
	@ args = 0, pretend = 0, frame = 0
	@ frame_needed = 0, uses_anonymous_args = 0
	stmfd	sp!, {r3, lr}
.LCFI56:
	.cfi_def_cfa_offset 8
	.cfi_offset 3, -8
	.cfi_offset 14, -4
	.loc 25 1787 0
	ldr	r0, .L517
	ldr	r1, .L517+4
	ldr	r2, .L517+8
	ldr	r3, .L517+12
	bl	_assert_fail
.LVL345:
.L518:
	.align	2
.L517:
	.word	.LC32
	.word	.LC5
	.word	1788
	.word	.LANCHOR3+1108
	.cfi_endproc
.LFE740:
	.size	cap_zombie_cap_get_capZombieID.part.79, .-cap_zombie_cap_get_capZombieID.part.79
	.section	.boot.text
	.align	2
	.global	write_it_asid_pool
	.type	write_it_asid_pool, %function
write_it_asid_pool:
.LFB336:
	.loc 10 318 0
	.cfi_startproc
	@ args = 0, pretend = 0, frame = 32
	@ frame_needed = 0, uses_anonymous_args = 0
	stmfd	sp!, {r4, r5, r6, lr}
.LCFI57:
	.cfi_def_cfa_offset 16
	.cfi_offset 4, -16
	.cfi_offset 5, -12
	.cfi_offset 6, -8
	.cfi_offset 14, -4
	sub	sp, sp, #32
.LCFI58:
	.cfi_def_cfa_offset 48
	mov	r4, r0
.LVL346:
	.loc 10 318 0
	add	ip, sp, #8
.LBB3205:
.LBB3206:
.LBB3207:
.LBB3208:
	.loc 25 777 0
	and	r6, r4, #14
.LBE3208:
.LBE3207:
.LBE3206:
.LBE3205:
	.loc 10 318 0
	stmia	ip, {r0, r1}
.LBB3257:
.LBB3251:
.LBB3211:
.LBB3209:
	.loc 25 777 0
	cmp	r6, #14
	ldmia	ip, {r0, r1}
.LBE3209:
.LBE3211:
.LBE3251:
.LBE3257:
	.loc 10 318 0
	stmia	sp, {r2, r3}
	add	r5, sp, #16
.LBB3258:
.LBB3252:
.LBB3212:
.LBB3210:
	.loc 25 778 0
	andne	r3, r4, #15
	.loc 25 779 0
	uxtbeq	r3, r4
.LBE3210:
.LBE3212:
	.loc 28 512 0
	sub	r3, r3, #1
.LBE3252:
.LBE3258:
	.loc 10 318 0
	mov	ip, sp
	stmia	r5, {r0, r1}
.LBB3259:
.LBB3253:
	.loc 28 512 0
	cmp	r3, #45
	ldrls	pc, [pc, r3, asl #2]
	b	.L584
.L533:
	.word	.L523
	.word	.L524
	.word	.L523
	.word	.L525
	.word	.L526
	.word	.L527
	.word	.L528
	.word	.L584
	.word	.L529
	.word	.L530
	.word	.L584
	.word	.L531
	.word	.L584
	.word	.L584
	.word	.L584
	.word	.L584
	.word	.L584
	.word	.L584
	.word	.L584
	.word	.L584
	.word	.L584
	.word	.L584
	.word	.L584
	.word	.L584
	.word	.L584
	.word	.L584
	.word	.L584
	.word	.L584
	.word	.L584
	.word	.L584
	.word	.L584
	.word	.L584
	.word	.L584
	.word	.L584
	.word	.L584
	.word	.L584
	.word	.L584
	.word	.L584
	.word	.L584
	.word	.L584
	.word	.L584
	.word	.L584
	.word	.L584
	.word	.L584
	.word	.L584
	.word	.L532
.L523:
.LVL347:
.LBB3213:
.LBB3214:
.LBB3215:
.LBB3216:
	.loc 25 777 0
	cmp	r6, #14
	.loc 25 778 0
	andne	r3, r4, #15
	.loc 25 779 0
	uxtbeq	r3, r4
.LBE3216:
.LBE3215:
	.loc 28 389 0
	bic	r2, r3, #2
	cmp	r2, #1
	bne	.L573
	.loc 28 392 0
	cmp	r3, #1
	beq	.L543
	cmp	r3, #3
	beq	.L595
.LVL348:
.L584:
.LBE3214:
.LBE3213:
	.loc 28 550 0
	mov	r4, #0
.L522:
	ldr	r3, [sp, #0]
.LVL349:
	ldmia	ip, {r0, r1}
	add	r2, sp, #32
.LBE3253:
.LBE3259:
.LBB3260:
.LBB3261:
.LBB3262:
.LBB3263:
	.loc 25 777 0
	and	ip, r3, #14
	cmp	ip, #14
	stmdb	r2, {r0, r1}
	.loc 25 778 0
	andne	r2, r3, #15
	.loc 25 779 0
	uxtbeq	r2, r3
.LBE3263:
.LBE3262:
	.loc 28 512 0
	sub	r2, r2, #1
	cmp	r2, #45
	ldrls	pc, [pc, r2, asl #2]
	b	.L587
.L565:
	.word	.L555
	.word	.L556
	.word	.L555
	.word	.L557
	.word	.L558
	.word	.L559
	.word	.L560
	.word	.L587
	.word	.L561
	.word	.L562
	.word	.L587
	.word	.L563
	.word	.L587
	.word	.L587
	.word	.L587
	.word	.L587
	.word	.L587
	.word	.L587
	.word	.L587
	.word	.L587
	.word	.L587
	.word	.L587
	.word	.L587
	.word	.L587
	.word	.L587
	.word	.L587
	.word	.L587
	.word	.L587
	.word	.L587
	.word	.L587
	.word	.L587
	.word	.L587
	.word	.L587
	.word	.L587
	.word	.L587
	.word	.L587
	.word	.L587
	.word	.L587
	.word	.L587
	.word	.L587
	.word	.L587
	.word	.L587
	.word	.L587
	.word	.L587
	.word	.L587
	.word	.L564
.L555:
.LVL350:
.LBB3264:
.LBB3265:
.LBB3266:
.LBB3267:
	.loc 25 777 0
	cmp	ip, #14
	.loc 25 778 0
	andne	r2, r3, #15
	.loc 25 779 0
	uxtbeq	r2, r3
.LBE3267:
.LBE3266:
	.loc 28 389 0
	bic	r1, r2, #2
	cmp	r1, #1
	bne	.L573
	.loc 28 392 0
	cmp	r2, #1
	beq	.L575
	cmp	r2, #3
	beq	.L596
.LVL351:
.L587:
.LBE3265:
.LBE3264:
	.loc 28 550 0
	mov	r3, #0
.LVL352:
.L554:
.LBE3261:
.LBE3260:
	.loc 10 321 0
	ldr	r2, .L597
	.loc 10 320 0
	str	r3, [r4, #4]
	.loc 10 321 0
	str	r4, [r2, #0]
	.loc 10 322 0
	add	sp, sp, #32
	ldmfd	sp!, {r4, r5, r6, pc}
.LVL353:
.L564:
.LBB3301:
.LBB3298:
.LBB3274:
.LBB3275:
.LBB3276:
.LBB3277:
.LBB3278:
.LBB3279:
	.loc 25 1807 0
	uxtb	r2, r3
	cmp	r2, #46
	ldr	r1, [sp, #28]
.LVL354:
	bne	.L582
	.loc 25 1810 0
	and	r3, r3, #16128
.LVL355:
	mov	r2, r3, lsr #8
.LBE3279:
.LBE3278:
	.loc 28 90 0
	cmp	r2, #32
	.loc 28 93 0
	andne	r2, r2, #31
	mvnne	r3, #0
	addne	r2, r2, #1
	.loc 28 90 0
	mvneq	r3, #31
.LVL356:
	movne	r3, r3, asl r2
.LBE3277:
.LBE3276:
	.loc 28 107 0
	and	r3, r3, r1
	b	.L554
.LVL357:
.L563:
.LBE3275:
.LBE3274:
.LBB3280:
.LBB3281:
	.loc 25 1235 0
	and	r2, r3, #15
	cmp	r2, #12
	bne	.L570
.LBE3281:
.LBE3280:
	.loc 28 526 0
	bic	r3, r3, #508
.LVL358:
	bic	r3, r3, #3
	b	.L554
.LVL359:
.L524:
.LBE3298:
.LBE3301:
.LBB3302:
.LBB3254:
.LBB3223:
.LBB3224:
	.loc 25 865 0
	and	r3, r4, #15
	cmp	r3, #2
	bne	.L566
.LVL360:
.L549:
.LBE3224:
.LBE3223:
.LBB3225:
.LBB3226:
	.loc 25 1519 0
	bic	r4, r4, #15
	b	.L522
.L525:
.LBE3226:
.LBE3225:
.LBB3228:
.LBB3229:
	.loc 25 902 0
	and	r4, r4, #15
	cmp	r4, #4
	ldr	r4, [sp, #20]
.LVL361:
	beq	.L549
.LVL362:
.L567:
	bl	cap_endpoint_cap_get_capEPPtr.part.51
.LVL363:
.L526:
.LBE3229:
.LBE3228:
.LBB3230:
.LBB3227:
	.loc 25 1516 0
	and	r3, r4, #15
	cmp	r3, #5
	beq	.L549
.LVL364:
.L581:
	bl	cap_asid_pool_cap_get_capASIDPool.isra.74.part.75
.LVL365:
.L527:
.LBE3227:
.LBE3230:
.LBB3231:
.LBB3232:
	.loc 25 1076 0
	and	r3, r4, #15
	cmp	r3, #6
	beq	.L549
.LVL366:
.L568:
	bl	cap_async_endpoint_cap_get_capAEPPtr.isra.56.part.57
.LVL367:
.L528:
.LBE3232:
.LBE3231:
.LBB3233:
.LBB3234:
	.loc 25 1623 0
	and	r3, r4, #15
	cmp	r3, #7
	.loc 25 1626 0
	biceq	r4, r4, #1020
	biceq	r4, r4, #3
	.loc 25 1623 0
	beq	.L522
.LVL368:
.L579:
	bl	cap_page_table_cap_get_capPTBasePtr.isra.70.part.71
.LVL369:
.L529:
.LBE3234:
.LBE3233:
.LBB3235:
.LBB3236:
	.loc 25 1675 0
	and	r3, r4, #15
	cmp	r3, #9
	.loc 25 1678 0
	biceq	r4, r4, #16320
	biceq	r4, r4, #63
	.loc 25 1675 0
	beq	.L522
.LVL370:
.L580:
	bl	cap_page_directory_cap_get_capPDBasePtr.isra.72.part.73
.LVL371:
.L530:
.LBE3236:
.LBE3235:
.LBB3237:
.LBB3238:
	.loc 25 1210 0
	and	r3, r4, #15
	cmp	r3, #10
	.loc 25 1213 0
	biceq	r4, r4, #31
	.loc 25 1210 0
	beq	.L522
.LVL372:
.L569:
	bl	cap_cnode_cap_get_capCNodePtr.isra.30.part.31
.LVL373:
.L531:
.LBE3238:
.LBE3237:
.LBB3239:
.LBB3240:
	.loc 25 1235 0
	and	r3, r4, #15
	cmp	r3, #12
.LBE3240:
.LBE3239:
	.loc 28 526 0
	biceq	r4, r4, #508
	biceq	r4, r4, #3
.LBB3242:
.LBB3241:
	.loc 25 1235 0
	beq	.L522
.LVL374:
.L570:
	bl	cap_thread_cap_get_capTCBPtr.isra.37.part.38
.LVL375:
.L532:
.LBE3241:
.LBE3242:
.LBB3243:
.LBB3244:
.LBB3245:
.LBB3246:
.LBB3247:
.LBB3248:
	.loc 25 1807 0
	uxtb	r3, r4
	cmp	r3, #46
	ldr	r2, [sp, #20]
.LVL376:
	bne	.L582
	.loc 25 1810 0
	and	r4, r4, #16128
	mov	r3, r4, lsr #8
.LBE3248:
.LBE3247:
	.loc 28 90 0
	cmp	r3, #32
	.loc 28 93 0
	andne	r3, r3, #31
	mvnne	r4, #0
	addne	r3, r3, #1
	.loc 28 90 0
	mvneq	r4, #31
.LVL377:
	movne	r4, r4, asl r3
.LBE3246:
.LBE3245:
	.loc 28 107 0
	and	r4, r4, r2
	b	.L522
.LVL378:
.L562:
.LBE3244:
.LBE3243:
.LBE3254:
.LBE3302:
.LBB3303:
.LBB3299:
.LBB3282:
.LBB3283:
	.loc 25 1210 0
	and	r2, r3, #15
	cmp	r2, #10
	bne	.L569
	.loc 25 1213 0
	bic	r3, r3, #31
.LVL379:
	b	.L554
.LVL380:
.L561:
.LBE3283:
.LBE3282:
.LBB3284:
.LBB3285:
	.loc 25 1675 0
	and	r2, r3, #15
	cmp	r2, #9
	bne	.L580
	.loc 25 1678 0
	bic	r3, r3, #16320
.LVL381:
	bic	r3, r3, #63
	b	.L554
.LVL382:
.L560:
.LBE3285:
.LBE3284:
.LBB3286:
.LBB3287:
	.loc 25 1623 0
	and	r2, r3, #15
	cmp	r2, #7
	bne	.L579
	.loc 25 1626 0
	bic	r3, r3, #1020
.LVL383:
	bic	r3, r3, #3
	b	.L554
.LVL384:
.L559:
.LBE3287:
.LBE3286:
.LBB3288:
.LBB3289:
	.loc 25 1076 0
	and	r2, r3, #15
	cmp	r2, #6
	bne	.L568
.LVL385:
.L594:
.LBE3289:
.LBE3288:
.LBB3290:
.LBB3291:
	.loc 25 1519 0
	bic	r3, r3, #15
	b	.L554
.LVL386:
.L558:
	.loc 25 1516 0
	and	r2, r3, #15
	cmp	r2, #5
	beq	.L594
	b	.L581
.LVL387:
.L557:
.LBE3291:
.LBE3290:
.LBB3292:
.LBB3293:
	.loc 25 902 0
	and	r3, r3, #15
.LVL388:
	cmp	r3, #4
	ldr	r3, [sp, #28]
.LVL389:
	beq	.L594
	b	.L567
.LVL390:
.L556:
.LBE3293:
.LBE3292:
.LBB3294:
.LBB3295:
	.loc 25 865 0
	and	r2, r3, #15
	cmp	r2, #2
	beq	.L594
.LVL391:
.L566:
	bl	cap_untyped_cap_get_capPtr.isra.33.part.34
.LVL392:
.L596:
.LBE3295:
.LBE3294:
.LBB3296:
.LBB3272:
.LBB3268:
.LBB3269:
	.loc 25 1480 0
	and	r2, r3, #15
	cmp	r2, #3
	bne	.L578
	.loc 25 1483 0
	bic	r3, r3, #-268435441
.LVL393:
	mov	r3, r3, asl #10
	b	.L554
.LVL394:
.L595:
.LBE3269:
.LBE3268:
.LBE3272:
.LBE3296:
.LBE3299:
.LBE3303:
.LBB3304:
.LBB3255:
.LBB3249:
.LBB3221:
.LBB3217:
.LBB3218:
	.loc 25 1480 0
	and	r3, r4, #15
	cmp	r3, #3
	.loc 25 1483 0
	biceq	r4, r4, #-268435441
	moveq	r4, r4, asl #10
	.loc 25 1480 0
	beq	.L522
.LVL395:
.L578:
	bl	cap_frame_cap_get_capFBasePtr.isra.66.part.67
.LVL396:
.L575:
.LBE3218:
.LBE3217:
.LBE3221:
.LBE3249:
.LBE3255:
.LBE3304:
.LBB3305:
.LBB3300:
.LBB3297:
.LBB3273:
.LBB3270:
.LBB3271:
	.loc 25 1352 0
	and	r2, r3, #15
	cmp	r2, #1
	bne	.L577
	.loc 25 1355 0
	bic	r3, r3, #-16777216
.LVL397:
	bic	r3, r3, #15
	mov	r3, r3, asl #8
	b	.L554
.LVL398:
.L543:
.LBE3271:
.LBE3270:
.LBE3273:
.LBE3297:
.LBE3300:
.LBE3305:
.LBB3306:
.LBB3256:
.LBB3250:
.LBB3222:
.LBB3219:
.LBB3220:
	.loc 25 1352 0
	and	r3, r4, #15
	cmp	r3, #1
	.loc 25 1355 0
	biceq	r4, r4, #-16777216
	biceq	r4, r4, #15
	moveq	r4, r4, asl #8
	.loc 25 1352 0
	beq	.L522
.LVL399:
.L577:
	bl	cap_small_frame_cap_get_capFBasePtr.isra.64.part.65
.LVL400:
.L573:
	bl	generic_frame_cap_get_capFBasePtr.isra.68.part.69
.LVL401:
.L582:
	bl	cap_zombie_cap_get_capZombieType.isra.76.part.77
.LVL402:
.L598:
	.align	2
.L597:
	.word	armKSASIDTable
.LBE3220:
.LBE3219:
.LBE3222:
.LBE3250:
.LBE3256:
.LBE3306:
	.cfi_endproc
.LFE336:
	.size	write_it_asid_pool, .-write_it_asid_pool
	.section	.text.unlikely
	.align	2
	.type	cap_frame_cap_get_capFSize.part.80, %function
cap_frame_cap_get_capFSize.part.80:
.LFB741:
	.loc 25 1391 0
	.cfi_startproc
	@ Volatile: function does not return.
	@ args = 0, pretend = 0, frame = 0
	@ frame_needed = 0, uses_anonymous_args = 0
	stmfd	sp!, {r3, lr}
.LCFI59:
	.cfi_def_cfa_offset 8
	.cfi_offset 3, -8
	.cfi_offset 14, -4
	.loc 25 1392 0
	ldr	r0, .L600
	ldr	r1, .L600+4
	ldr	r2, .L600+8
	ldr	r3, .L600+12
	bl	_assert_fail
.LVL403:
.L601:
	.align	2
.L600:
	.word	.LC26
	.word	.LC5
	.word	1393
	.word	.LANCHOR3+1140
	.cfi_endproc
.LFE741:
	.size	cap_frame_cap_get_capFSize.part.80, .-cap_frame_cap_get_capFSize.part.80
	.align	2
	.type	generic_frame_cap_get_capFSize.part.81, %function
generic_frame_cap_get_capFSize.part.81:
.LFB742:
	.loc 28 405 0
	.cfi_startproc
	@ Volatile: function does not return.
	@ args = 0, pretend = 0, frame = 0
	@ frame_needed = 0, uses_anonymous_args = 0
	stmfd	sp!, {r3, lr}
.LCFI60:
	.cfi_def_cfa_offset 8
	.cfi_offset 3, -8
	.cfi_offset 14, -4
	.loc 28 410 0
	ldr	r0, .L603
	ldr	r1, .L603+4
	ldr	r2, .L603+8
	ldr	r3, .L603+12
	bl	_assert_fail
.LVL404:
.L604:
	.align	2
.L603:
	.word	.LC27
	.word	.LC28
	.word	411
	.word	.LANCHOR3+1168
	.cfi_endproc
.LFE742:
	.size	generic_frame_cap_get_capFSize.part.81, .-generic_frame_cap_get_capFSize.part.81
	.align	2
	.type	endpoint_ptr_set_epQueue_head.part.82, %function
endpoint_ptr_set_epQueue_head.part.82:
.LFB743:
	.loc 25 94 0
	.cfi_startproc
	@ Volatile: function does not return.
	@ args = 0, pretend = 0, frame = 0
	@ frame_needed = 0, uses_anonymous_args = 0
	stmfd	sp!, {r3, lr}
.LCFI61:
	.cfi_def_cfa_offset 8
	.cfi_offset 3, -8
	.cfi_offset 14, -4
	.loc 25 96 0
	mov	r2, #96
	ldr	r0, .L606
	ldr	r1, .L606+4
	ldr	r3, .L606+8
	bl	_assert_fail
.LVL405:
.L607:
	.align	2
.L606:
	.word	.LC33
	.word	.LC5
	.word	.LANCHOR3+1200
	.cfi_endproc
.LFE743:
	.size	endpoint_ptr_set_epQueue_head.part.82, .-endpoint_ptr_set_epQueue_head.part.82
	.align	2
	.type	endpoint_ptr_set_epQueue_tail.part.83, %function
endpoint_ptr_set_epQueue_tail.part.83:
.LFB744:
	.loc 25 107 0
	.cfi_startproc
	@ Volatile: function does not return.
	@ args = 0, pretend = 0, frame = 0
	@ frame_needed = 0, uses_anonymous_args = 0
	stmfd	sp!, {r3, lr}
.LCFI62:
	.cfi_def_cfa_offset 8
	.cfi_offset 3, -8
	.cfi_offset 14, -4
	.loc 25 109 0
	mov	r2, #109
	ldr	r0, .L609
	ldr	r1, .L609+4
	ldr	r3, .L609+8
	bl	_assert_fail
.LVL406:
.L610:
	.align	2
.L609:
	.word	.LC33
	.word	.LC5
	.word	.LANCHOR3+1232
	.cfi_endproc
.LFE744:
	.size	endpoint_ptr_set_epQueue_tail.part.83, .-endpoint_ptr_set_epQueue_tail.part.83
	.align	2
	.type	endpoint_ptr_set_state.part.84, %function
endpoint_ptr_set_state.part.84:
.LFB745:
	.loc 25 120 0
	.cfi_startproc
	@ Volatile: function does not return.
	@ args = 0, pretend = 0, frame = 0
	@ frame_needed = 0, uses_anonymous_args = 0
	stmfd	sp!, {r3, lr}
.LCFI63:
	.cfi_def_cfa_offset 8
	.cfi_offset 3, -8
	.cfi_offset 14, -4
	.loc 25 122 0
	mov	r2, #122
	ldr	r0, .L612
	ldr	r1, .L612+4
	ldr	r3, .L612+8
	bl	_assert_fail
.LVL407:
.L613:
	.align	2
.L612:
	.word	.LC34
	.word	.LC5
	.word	.LANCHOR3+1264
	.cfi_endproc
.LFE745:
	.size	endpoint_ptr_set_state.part.84, .-endpoint_ptr_set_state.part.84
	.align	2
	.type	thread_state_ptr_set_tsType.part.85, %function
thread_state_ptr_set_tsType.part.85:
.LFB746:
	.loc 25 280 0
	.cfi_startproc
	@ Volatile: function does not return.
	@ args = 0, pretend = 0, frame = 0
	@ frame_needed = 0, uses_anonymous_args = 0
	stmfd	sp!, {r3, lr}
.LCFI64:
	.cfi_def_cfa_offset 8
	.cfi_offset 3, -8
	.cfi_offset 14, -4
	.loc 25 282 0
	ldr	r0, .L615
	ldr	r1, .L615+4
	ldr	r2, .L615+8
	ldr	r3, .L615+12
	bl	_assert_fail
.LVL408:
.L616:
	.align	2
.L615:
	.word	.LC35
	.word	.LC5
	.word	282
	.word	.LANCHOR3+1288
	.cfi_endproc
.LFE746:
	.size	thread_state_ptr_set_tsType.part.85, .-thread_state_ptr_set_tsType.part.85
	.align	2
	.type	thread_state_ptr_set_blockingIPCEndpoint.part.86, %function
thread_state_ptr_set_blockingIPCEndpoint.part.86:
.LFB747:
	.loc 25 262 0
	.cfi_startproc
	@ Volatile: function does not return.
	@ args = 0, pretend = 0, frame = 0
	@ frame_needed = 0, uses_anonymous_args = 0
	stmfd	sp!, {r3, lr}
.LCFI65:
	.cfi_def_cfa_offset 8
	.cfi_offset 3, -8
	.cfi_offset 14, -4
	.loc 25 264 0
	mov	r2, #264
	ldr	r0, .L618
	ldr	r1, .L618+4
	ldr	r3, .L618+8
	bl	_assert_fail
.LVL409:
.L619:
	.align	2
.L618:
	.word	.LC33
	.word	.LC5
	.word	.LANCHOR3+1316
	.cfi_endproc
.LFE747:
	.size	thread_state_ptr_set_blockingIPCEndpoint.part.86, .-thread_state_ptr_set_blockingIPCEndpoint.part.86
	.align	2
	.type	mdb_node_new.part.87, %function
mdb_node_new.part.87:
.LFB748:
	.loc 25 293 0
	.cfi_startproc
	@ Volatile: function does not return.
	@ args = 0, pretend = 0, frame = 0
	@ frame_needed = 0, uses_anonymous_args = 0
	stmfd	sp!, {r3, lr}
.LCFI66:
	.cfi_def_cfa_offset 8
	.cfi_offset 3, -8
	.cfi_offset 14, -4
	.loc 25 300 0
	mov	r2, #300
	ldr	r0, .L621
	ldr	r1, .L621+4
	ldr	r3, .L621+8
	bl	_assert_fail
.LVL410:
.L622:
	.align	2
.L621:
	.word	.LC36
	.word	.LC5
	.word	.LANCHOR3+1360
	.cfi_endproc
.LFE748:
	.size	mdb_node_new.part.87, .-mdb_node_new.part.87
	.align	2
	.type	mdb_node_ptr_set_mdbRevocable.part.88, %function
mdb_node_ptr_set_mdbRevocable.part.88:
.LFB749:
	.loc 25 343 0
	.cfi_startproc
	@ Volatile: function does not return.
	@ args = 0, pretend = 0, frame = 0
	@ frame_needed = 0, uses_anonymous_args = 0
	stmfd	sp!, {r3, lr}
.LCFI67:
	.cfi_def_cfa_offset 8
	.cfi_offset 3, -8
	.cfi_offset 14, -4
	.loc 25 345 0
	ldr	r0, .L624
	ldr	r1, .L624+4
	ldr	r2, .L624+8
	ldr	r3, .L624+12
	bl	_assert_fail
.LVL411:
.L625:
	.align	2
.L624:
	.word	.LC37
	.word	.LC5
	.word	345
	.word	.LANCHOR3+1376
	.cfi_endproc
.LFE749:
	.size	mdb_node_ptr_set_mdbRevocable.part.88, .-mdb_node_ptr_set_mdbRevocable.part.88
	.align	2
	.type	mdb_node_ptr_set_mdbFirstBadged.part.89, %function
mdb_node_ptr_set_mdbFirstBadged.part.89:
.LFB750:
	.loc 25 365 0
	.cfi_startproc
	@ Volatile: function does not return.
	@ args = 0, pretend = 0, frame = 0
	@ frame_needed = 0, uses_anonymous_args = 0
	stmfd	sp!, {r3, lr}
.LCFI68:
	.cfi_def_cfa_offset 8
	.cfi_offset 3, -8
	.cfi_offset 14, -4
	.loc 25 367 0
	ldr	r0, .L627
	ldr	r1, .L627+4
	ldr	r2, .L627+8
	ldr	r3, .L627+12
	bl	_assert_fail
.LVL412:
.L628:
	.align	2
.L627:
	.word	.LC19
	.word	.LC5
	.word	367
	.word	.LANCHOR3+1408
	.cfi_endproc
.LFE750:
	.size	mdb_node_ptr_set_mdbFirstBadged.part.89, .-mdb_node_ptr_set_mdbFirstBadged.part.89
	.align	2
	.type	mdb_node_ptr_set_mdbPrev.part.90, %function
mdb_node_ptr_set_mdbPrev.part.90:
.LFB751:
	.loc 25 387 0
	.cfi_startproc
	@ Volatile: function does not return.
	@ args = 0, pretend = 0, frame = 0
	@ frame_needed = 0, uses_anonymous_args = 0
	stmfd	sp!, {r3, lr}
.LCFI69:
	.cfi_def_cfa_offset 8
	.cfi_offset 3, -8
	.cfi_offset 14, -4
	.loc 25 389 0
	ldr	r0, .L630
	ldr	r1, .L630+4
	ldr	r2, .L630+8
	ldr	r3, .L630+12
	bl	_assert_fail
.LVL413:
.L631:
	.align	2
.L630:
	.word	.LC38
	.word	.LC5
	.word	389
	.word	.LANCHOR3+1440
	.cfi_endproc
.LFE751:
	.size	mdb_node_ptr_set_mdbPrev.part.90, .-mdb_node_ptr_set_mdbPrev.part.90
	.align	2
	.type	mdb_node_ptr_set_mdbNext.part.91, %function
mdb_node_ptr_set_mdbNext.part.91:
.LFB752:
	.loc 25 321 0
	.cfi_startproc
	@ Volatile: function does not return.
	@ args = 0, pretend = 0, frame = 0
	@ frame_needed = 0, uses_anonymous_args = 0
	stmfd	sp!, {r3, lr}
.LCFI70:
	.cfi_def_cfa_offset 8
	.cfi_offset 3, -8
	.cfi_offset 14, -4
	.loc 25 323 0
	ldr	r0, .L633
	ldr	r1, .L633+4
	ldr	r2, .L633+8
	ldr	r3, .L633+12
	bl	_assert_fail
.LVL414:
.L634:
	.align	2
.L633:
	.word	.LC38
	.word	.LC5
	.word	323
	.word	.LANCHOR3+1468
	.cfi_endproc
.LFE752:
	.size	mdb_node_ptr_set_mdbNext.part.91, .-mdb_node_ptr_set_mdbNext.part.91
	.align	2
	.type	async_endpoint_ptr_set_aepQueue_head.part.93, %function
async_endpoint_ptr_set_aepQueue_head.part.93:
.LFB754:
	.loc 25 50 0
	.cfi_startproc
	@ Volatile: function does not return.
	@ args = 0, pretend = 0, frame = 0
	@ frame_needed = 0, uses_anonymous_args = 0
	stmfd	sp!, {r3, lr}
.LCFI71:
	.cfi_def_cfa_offset 8
	.cfi_offset 3, -8
	.cfi_offset 14, -4
	.loc 25 52 0
	mov	r2, #52
	ldr	r0, .L636
	ldr	r1, .L636+4
	ldr	r3, .L636+8
	bl	_assert_fail
.LVL415:
.L637:
	.align	2
.L636:
	.word	.LC33
	.word	.LC5
	.word	.LANCHOR3+1496
	.cfi_endproc
.LFE754:
	.size	async_endpoint_ptr_set_aepQueue_head.part.93, .-async_endpoint_ptr_set_aepQueue_head.part.93
	.align	2
	.type	async_endpoint_ptr_set_aepQueue_tail.part.94, %function
async_endpoint_ptr_set_aepQueue_tail.part.94:
.LFB755:
	.loc 25 63 0
	.cfi_startproc
	@ Volatile: function does not return.
	@ args = 0, pretend = 0, frame = 0
	@ frame_needed = 0, uses_anonymous_args = 0
	stmfd	sp!, {r3, lr}
.LCFI72:
	.cfi_def_cfa_offset 8
	.cfi_offset 3, -8
	.cfi_offset 14, -4
	.loc 25 65 0
	mov	r2, #65
	ldr	r0, .L639
	ldr	r1, .L639+4
	ldr	r3, .L639+8
	bl	_assert_fail
.LVL416:
.L640:
	.align	2
.L639:
	.word	.LC33
	.word	.LC5
	.word	.LANCHOR3+1536
	.cfi_endproc
.LFE755:
	.size	async_endpoint_ptr_set_aepQueue_tail.part.94, .-async_endpoint_ptr_set_aepQueue_tail.part.94
	.align	2
	.type	async_endpoint_ptr_set_state.part.95, %function
async_endpoint_ptr_set_state.part.95:
.LFB756:
	.loc 25 76 0
	.cfi_startproc
	@ Volatile: function does not return.
	@ args = 0, pretend = 0, frame = 0
	@ frame_needed = 0, uses_anonymous_args = 0
	stmfd	sp!, {r3, lr}
.LCFI73:
	.cfi_def_cfa_offset 8
	.cfi_offset 3, -8
	.cfi_offset 14, -4
	.loc 25 78 0
	mov	r2, #78
	ldr	r0, .L642
	ldr	r1, .L642+4
	ldr	r3, .L642+8
	bl	_assert_fail
.LVL417:
.L643:
	.align	2
.L642:
	.word	.LC34
	.word	.LC5
	.word	.LANCHOR3+1576
	.cfi_endproc
.LFE756:
	.size	async_endpoint_ptr_set_state.part.95, .-async_endpoint_ptr_set_state.part.95
	.align	2
	.type	message_info_set_msgCapsUnwrapped.part.96, %function
message_info_set_msgCapsUnwrapped.part.96:
.LFB757:
	.loc 27 46 0
	.cfi_startproc
	@ Volatile: function does not return.
	@ args = 0, pretend = 0, frame = 0
	@ frame_needed = 0, uses_anonymous_args = 0
	stmfd	sp!, {r3, lr}
.LCFI74:
	.cfi_def_cfa_offset 8
	.cfi_offset 3, -8
	.cfi_offset 14, -4
	.loc 27 48 0
	mov	r2, #48
	ldr	r0, .L645
	ldr	r1, .L645+4
	ldr	r3, .L645+8
	bl	_assert_fail
.LVL418:
.L646:
	.align	2
.L645:
	.word	.LC39
	.word	.LC13
	.word	.LANCHOR3+1608
	.cfi_endproc
.LFE757:
	.size	message_info_set_msgCapsUnwrapped.part.96, .-message_info_set_msgCapsUnwrapped.part.96
	.align	2
	.type	message_info_set_msgExtraCaps.part.97, %function
message_info_set_msgExtraCaps.part.97:
.LFB758:
	.loc 27 60 0
	.cfi_startproc
	@ Volatile: function does not return.
	@ args = 0, pretend = 0, frame = 0
	@ frame_needed = 0, uses_anonymous_args = 0
	stmfd	sp!, {r3, lr}
.LCFI75:
	.cfi_def_cfa_offset 8
	.cfi_offset 3, -8
	.cfi_offset 14, -4
	.loc 27 62 0
	mov	r2, #62
	ldr	r0, .L648
	ldr	r1, .L648+4
	ldr	r3, .L648+8
	bl	_assert_fail
.LVL419:
.L649:
	.align	2
.L648:
	.word	.LC40
	.word	.LC13
	.word	.LANCHOR3+1644
	.cfi_endproc
.LFE758:
	.size	message_info_set_msgExtraCaps.part.97, .-message_info_set_msgExtraCaps.part.97
	.align	2
	.type	message_info_set_msgLength.part.98, %function
message_info_set_msgLength.part.98:
.LFB759:
	.loc 27 74 0
	.cfi_startproc
	@ Volatile: function does not return.
	@ args = 0, pretend = 0, frame = 0
	@ frame_needed = 0, uses_anonymous_args = 0
	stmfd	sp!, {r3, lr}
.LCFI76:
	.cfi_def_cfa_offset 8
	.cfi_offset 3, -8
	.cfi_offset 14, -4
	.loc 27 76 0
	mov	r2, #76
	ldr	r0, .L651
	ldr	r1, .L651+4
	ldr	r3, .L651+8
	bl	_assert_fail
.LVL420:
.L652:
	.align	2
.L651:
	.word	.LC41
	.word	.LC13
	.word	.LANCHOR3+1676
	.cfi_endproc
.LFE759:
	.size	message_info_set_msgLength.part.98, .-message_info_set_msgLength.part.98
	.align	2
	.type	fault_cap_fault_get_inReceivePhase.isra.99.part.100, %function
fault_cap_fault_get_inReceivePhase.isra.99.part.100:
.LFB761:
	.loc 25 455 0
	.cfi_startproc
	@ Volatile: function does not return.
	@ args = 0, pretend = 0, frame = 0
	@ frame_needed = 0, uses_anonymous_args = 0
	stmfd	sp!, {r3, lr}
.LCFI77:
	.cfi_def_cfa_offset 8
	.cfi_offset 3, -8
	.cfi_offset 14, -4
	.loc 25 456 0
	ldr	r0, .L654
	ldr	r1, .L654+4
	ldr	r2, .L654+8
	ldr	r3, .L654+12
	bl	_assert_fail
.LVL421:
.L655:
	.align	2
.L654:
	.word	.LC42
	.word	.LC5
	.word	457
	.word	.LANCHOR3+1704
	.cfi_endproc
.LFE761:
	.size	fault_cap_fault_get_inReceivePhase.isra.99.part.100, .-fault_cap_fault_get_inReceivePhase.isra.99.part.100
	.align	2
	.type	fault_cap_fault_get_address.part.101, %function
fault_cap_fault_get_address.part.101:
.LFB762:
	.loc 25 447 0
	.cfi_startproc
	@ Volatile: function does not return.
	@ args = 0, pretend = 0, frame = 0
	@ frame_needed = 0, uses_anonymous_args = 0
	stmfd	sp!, {r3, lr}
.LCFI78:
	.cfi_def_cfa_offset 8
	.cfi_offset 3, -8
	.cfi_offset 14, -4
	.loc 25 448 0
	ldr	r0, .L657
	ldr	r1, .L657+4
	ldr	r2, .L657+8
	ldr	r3, .L657+12
	bl	_assert_fail
.LVL422:
.L658:
	.align	2
.L657:
	.word	.LC42
	.word	.LC5
	.word	449
	.word	.LANCHOR3+1740
	.cfi_endproc
.LFE762:
	.size	fault_cap_fault_get_address.part.101, .-fault_cap_fault_get_address.part.101
	.align	2
	.type	fault_vm_fault_get_instructionFault.isra.102.part.103, %function
fault_vm_fault_get_instructionFault.isra.102.part.103:
.LFB764:
	.loc 25 500 0
	.cfi_startproc
	@ Volatile: function does not return.
	@ args = 0, pretend = 0, frame = 0
	@ frame_needed = 0, uses_anonymous_args = 0
	stmfd	sp!, {r3, lr}
.LCFI79:
	.cfi_def_cfa_offset 8
	.cfi_offset 3, -8
	.cfi_offset 14, -4
	.loc 25 501 0
	ldr	r0, .L660
	ldr	r1, .L660+4
	ldr	r2, .L660+8
	ldr	r3, .L660+12
	bl	_assert_fail
.LVL423:
.L661:
	.align	2
.L660:
	.word	.LC43
	.word	.LC5
	.word	502
	.word	.LANCHOR3+1768
	.cfi_endproc
.LFE764:
	.size	fault_vm_fault_get_instructionFault.isra.102.part.103, .-fault_vm_fault_get_instructionFault.isra.102.part.103
	.align	2
	.type	fault_vm_fault_get_address.part.104, %function
fault_vm_fault_get_address.part.104:
.LFB765:
	.loc 25 484 0
	.cfi_startproc
	@ Volatile: function does not return.
	@ args = 0, pretend = 0, frame = 0
	@ frame_needed = 0, uses_anonymous_args = 0
	stmfd	sp!, {r3, lr}
.LCFI80:
	.cfi_def_cfa_offset 8
	.cfi_offset 3, -8
	.cfi_offset 14, -4
	.loc 25 485 0
	ldr	r0, .L663
	ldr	r1, .L663+4
	ldr	r2, .L663+8
	ldr	r3, .L663+12
	bl	_assert_fail
.LVL424:
.L664:
	.align	2
.L663:
	.word	.LC43
	.word	.LC5
	.word	486
	.word	.LANCHOR3+1804
	.cfi_endproc
.LFE765:
	.size	fault_vm_fault_get_address.part.104, .-fault_vm_fault_get_address.part.104
	.align	2
	.type	fault_vm_fault_get_FSR.isra.105.part.106, %function
fault_vm_fault_get_FSR.isra.105.part.106:
.LFB767:
	.loc 25 492 0
	.cfi_startproc
	@ Volatile: function does not return.
	@ args = 0, pretend = 0, frame = 0
	@ frame_needed = 0, uses_anonymous_args = 0
	stmfd	sp!, {r3, lr}
.LCFI81:
	.cfi_def_cfa_offset 8
	.cfi_offset 3, -8
	.cfi_offset 14, -4
	.loc 25 493 0
	ldr	r0, .L666
	ldr	r1, .L666+4
	ldr	r2, .L666+8
	ldr	r3, .L666+12
	bl	_assert_fail
.LVL425:
.L667:
	.align	2
.L666:
	.word	.LC43
	.word	.LC5
	.word	494
	.word	.LANCHOR3+1832
	.cfi_endproc
.LFE767:
	.size	fault_vm_fault_get_FSR.isra.105.part.106, .-fault_vm_fault_get_FSR.isra.105.part.106
	.align	2
	.type	fault_unknown_syscall_get_syscallNumber.part.107, %function
fault_unknown_syscall_get_syscallNumber.part.107:
.LFB768:
	.loc 25 523 0
	.cfi_startproc
	@ Volatile: function does not return.
	@ args = 0, pretend = 0, frame = 0
	@ frame_needed = 0, uses_anonymous_args = 0
	stmfd	sp!, {r3, lr}
.LCFI82:
	.cfi_def_cfa_offset 8
	.cfi_offset 3, -8
	.cfi_offset 14, -4
	.loc 25 524 0
	ldr	r0, .L669
	ldr	r1, .L669+4
	ldr	r2, .L669+8
	ldr	r3, .L669+12
	bl	_assert_fail
.LVL426:
.L670:
	.align	2
.L669:
	.word	.LC44
	.word	.LC5
	.word	525
	.word	.LANCHOR3+1856
	.cfi_endproc
.LFE768:
	.size	fault_unknown_syscall_get_syscallNumber.part.107, .-fault_unknown_syscall_get_syscallNumber.part.107
	.align	2
	.type	fault_user_exception_get_number.part.108, %function
fault_user_exception_get_number.part.108:
.LFB769:
	.loc 25 549 0
	.cfi_startproc
	@ Volatile: function does not return.
	@ args = 0, pretend = 0, frame = 0
	@ frame_needed = 0, uses_anonymous_args = 0
	stmfd	sp!, {r3, lr}
.LCFI83:
	.cfi_def_cfa_offset 8
	.cfi_offset 3, -8
	.cfi_offset 14, -4
	.loc 25 550 0
	ldr	r0, .L672
	ldr	r1, .L672+4
	ldr	r2, .L672+8
	ldr	r3, .L672+12
	bl	_assert_fail
.LVL427:
.L673:
	.align	2
.L672:
	.word	.LC45
	.word	.LC5
	.word	551
	.word	.LANCHOR3+1896
	.cfi_endproc
.LFE769:
	.size	fault_user_exception_get_number.part.108, .-fault_user_exception_get_number.part.108
	.align	2
	.type	fault_user_exception_get_code.isra.109.part.110, %function
fault_user_exception_get_code.isra.109.part.110:
.LFB771:
	.loc 25 557 0
	.cfi_startproc
	@ Volatile: function does not return.
	@ args = 0, pretend = 0, frame = 0
	@ frame_needed = 0, uses_anonymous_args = 0
	stmfd	sp!, {r3, lr}
.LCFI84:
	.cfi_def_cfa_offset 8
	.cfi_offset 3, -8
	.cfi_offset 14, -4
	.loc 25 558 0
	ldr	r0, .L675
	ldr	r1, .L675+4
	ldr	r2, .L675+8
	ldr	r3, .L675+12
	bl	_assert_fail
.LVL428:
.L676:
	.align	2
.L675:
	.word	.LC45
	.word	.LC5
	.word	559
	.word	.LANCHOR3+1928
	.cfi_endproc
.LFE771:
	.size	fault_user_exception_get_code.isra.109.part.110, .-fault_user_exception_get_code.isra.109.part.110
	.align	2
	.type	cap_cnode_cap_get_capCNodeGuardSize.part.111, %function
cap_cnode_cap_get_capCNodeGuardSize.part.111:
.LFB772:
	.loc 25 1161 0
	.cfi_startproc
	@ Volatile: function does not return.
	@ args = 0, pretend = 0, frame = 0
	@ frame_needed = 0, uses_anonymous_args = 0
	stmfd	sp!, {r3, lr}
.LCFI85:
	.cfi_def_cfa_offset 8
	.cfi_offset 3, -8
	.cfi_offset 14, -4
	.loc 25 1162 0
	ldr	r0, .L678
	ldr	r1, .L678+4
	ldr	r2, .L678+8
	ldr	r3, .L678+12
	bl	_assert_fail
.LVL429:
.L679:
	.align	2
.L678:
	.word	.LC10
	.word	.LC5
	.word	1163
	.word	.LANCHOR3+1960
	.cfi_endproc
.LFE772:
	.size	cap_cnode_cap_get_capCNodeGuardSize.part.111, .-cap_cnode_cap_get_capCNodeGuardSize.part.111
	.align	2
	.type	cap_cnode_cap_get_capCNodeGuard.part.112, %function
cap_cnode_cap_get_capCNodeGuard.part.112:
.LFB773:
	.loc 25 1189 0
	.cfi_startproc
	@ Volatile: function does not return.
	@ args = 0, pretend = 0, frame = 0
	@ frame_needed = 0, uses_anonymous_args = 0
	stmfd	sp!, {r3, lr}
.LCFI86:
	.cfi_def_cfa_offset 8
	.cfi_offset 3, -8
	.cfi_offset 14, -4
	.loc 25 1190 0
	ldr	r0, .L681
	ldr	r1, .L681+4
	ldr	r2, .L681+8
	ldr	r3, .L681+12
	bl	_assert_fail
.LVL430:
.L682:
	.align	2
.L681:
	.word	.LC10
	.word	.LC5
	.word	1191
	.word	.LANCHOR3+1996
	.cfi_endproc
.LFE773:
	.size	cap_cnode_cap_get_capCNodeGuard.part.112, .-cap_cnode_cap_get_capCNodeGuard.part.112
	.align	2
	.type	lookup_fault_depth_mismatch_new, %function
lookup_fault_depth_mismatch_new:
.LFB202:
	.loc 25 2053 0
	.cfi_startproc
	@ args = 0, pretend = 0, frame = 0
	@ frame_needed = 0, uses_anonymous_args = 0
.LVL431:
	stmfd	sp!, {r3, lr}
.LCFI87:
	.cfi_def_cfa_offset 8
	.cfi_offset 3, -8
	.cfi_offset 14, -4
	.loc 25 2060 0
	bics	r3, r1, #63
	beq	.L684
.LBB3309:
.LBB3310:
	ldr	r0, .L686
.LVL432:
	ldr	r1, .L686+4
.LVL433:
	ldr	r2, .L686+8
.LVL434:
	ldr	r3, .L686+12
	bl	_assert_fail
.LVL435:
.L684:
.LBE3310:
.LBE3309:
	.loc 25 2061 0
	and	r1, r1, #63
.LVL436:
	.loc 25 2063 0
	bics	ip, r2, #63
	.loc 25 2061 0
	mov	r1, r1, asl #8
.LVL437:
	.loc 25 2063 0
	beq	.L685
	.loc 25 2063 0 is_stmt 0 discriminator 1
	ldr	r0, .L686+16
.LVL438:
	ldr	r1, .L686+4
.LVL439:
	ldr	r2, .L686+20
.LVL440:
	ldr	r3, .L686+12
	bl	_assert_fail
.LVL441:
.L685:
	.loc 25 2064 0 is_stmt 1
	mov	r2, r2, asl #2
.LVL442:
	orr	r1, r1, #2
.LVL443:
	uxtb	r2, r2
	.loc 25 2067 0
	orr	r2, r1, r2
	.loc 25 2069 0
	stmia	r0, {r2, ip}
	.loc 25 2070 0
	ldmfd	sp!, {r3, pc}
.L687:
	.align	2
.L686:
	.word	.LC46
	.word	.LC5
	.word	2060
	.word	.LANCHOR3+2028
	.word	.LC9
	.word	2063
	.cfi_endproc
.LFE202:
	.size	lookup_fault_depth_mismatch_new, .-lookup_fault_depth_mismatch_new
	.text
	.align	2
	.global	resolveAddressBits
	.type	resolveAddressBits, %function
resolveAddressBits:
.LFB488:
	.file 29 "/home/zj/seL4/myseL4/kernel/src/kernel/cspace.c"
	.loc 29 140 0
	.cfi_startproc
	@ args = 4, pretend = 0, frame = 8
	@ frame_needed = 0, uses_anonymous_args = 0
.LVL444:
	stmfd	sp!, {r4, r5, r6, r7, r8, r9, sl, fp, lr}
.LCFI88:
	.cfi_def_cfa_offset 36
	.cfi_offset 4, -36
	.cfi_offset 5, -32
	.cfi_offset 6, -28
	.cfi_offset 7, -24
	.cfi_offset 8, -20
	.cfi_offset 9, -16
	.cfi_offset 10, -12
	.cfi_offset 11, -8
	.cfi_offset 14, -4
	sub	sp, sp, #12
.LCFI89:
	.cfi_def_cfa_offset 48
	.loc 29 140 0
	mov	r7, sp
	stmia	sp, {r1, r2}
.LBB3325:
.LBB3326:
	.loc 25 777 0
	and	r2, r1, #14
	cmp	r2, #14
	.loc 25 779 0
	uxtbeq	r2, r1
.LBE3326:
.LBE3325:
	.loc 29 140 0
	ldr	sl, [sp, #48]
.LBB3328:
.LBB3327:
	.loc 25 778 0
	andne	r2, r1, #15
.LBE3327:
.LBE3328:
	.loc 29 149 0
	cmp	r2, #10
	.loc 29 140 0
	mov	r4, r0
	mov	r5, r1
.LVL445:
	.loc 29 149 0
	moveq	r2, sl
	.loc 29 168 0
	moveq	r8, #1
	.loc 29 149 0
	bne	.L703
.LVL446:
.L701:
.LBB3329:
.LBB3330:
	.loc 25 1182 0
	and	r1, r5, #15
	cmp	r1, #10
	ldr	r0, [sp, #4]
.LVL447:
	bne	.L704
	.loc 25 1185 0
	and	r6, r0, #8126464
.LBE3330:
.LBE3329:
.LBB3332:
.LBB3333:
	.loc 25 1165 0
	and	ip, r0, #260046848
.LBE3333:
.LBE3332:
.LBB3335:
.LBB3331:
	.loc 25 1185 0
	mov	r6, r6, lsr #18
.LVL448:
.LBE3331:
.LBE3335:
.LBB3336:
.LBB3334:
	.loc 25 1165 0
	mov	ip, ip, lsr #23
.LVL449:
.LBE3334:
.LBE3336:
	.loc 29 161 0
	adds	r1, ip, r6
.LVL450:
	beq	.L705
.LVL451:
	.loc 29 168 0
	rsb	fp, ip, r2
	mov	r9, r8, asl ip
	and	fp, fp, #31
	sub	r9, r9, #1
	and	r9, r9, r3, lsr fp
.LBB3337:
.LBB3338:
	.loc 25 1193 0
	bic	r0, r0, #-16777216
.LVL452:
	bic	r0, r0, #16515072
.LVL453:
.LBE3338:
.LBE3337:
	.loc 29 169 0
	cmp	r2, ip
	cmpcs	r9, r0
	moveq	r9, #0
	movne	r9, #1
	bne	.L706
	.loc 29 176 0
	cmp	r2, r1
	bcc	.L707
	.loc 29 183 0
	mov	r6, r8, asl r6
	rsb	r2, r1, r2
.LVL454:
	sub	r6, r6, #1
	and	r6, r6, r3, lsr r2
.LBB3339:
.LBB3340:
	.loc 25 1213 0
	bic	r5, r5, #31
.LVL455:
.LBE3340:
.LBE3339:
	.loc 29 184 0
	add	r6, r5, r6, asl #4
.LVL456:
	.loc 29 186 0
	bhi	.L698
.LVL457:
	.loc 29 190 0
	str	r9, [r4, #0]
	stmib	r4, {r6, r9}
.LVL458:
.L688:
	.loc 29 206 0
	mov	r0, r4
	add	sp, sp, #12
	ldmfd	sp!, {r4, r5, r6, r7, r8, r9, sl, fp, pc}
.LVL459:
.L703:
	.loc 29 150 0
	ldr	r2, .L709
	mov	r3, #0
.LVL460:
	.loc 29 152 0
	mov	r1, #2
.LVL461:
	str	sl, [r0, #8]
	.loc 29 150 0
	str	r3, [r2, #0]
	str	r3, [r2, #4]
.LVL462:
	.loc 29 152 0
	stmia	r0, {r1, r3}
	b	.L688
.LVL463:
.L698:
	.loc 29 194 0
	ldmia	r6, {r0, r1}
.LVL464:
.LBB3341:
.LBB3342:
	.loc 25 777 0
	and	ip, r0, #14
.LVL465:
	cmp	ip, #14
.LBE3342:
.LBE3341:
	.loc 29 194 0
	stmia	r7, {r0, r1}
.LBB3344:
.LBB3343:
	.loc 25 778 0
	andne	r1, r0, #15
	.loc 25 779 0
	uxtbeq	r1, r0
.LBE3343:
.LBE3344:
	.loc 29 196 0
	cmp	r1, #10
	.loc 29 194 0
	mov	r5, r0
.LVL466:
	.loc 29 196 0
	beq	.L701
.LVL467:
	.loc 29 200 0
	mov	r3, #0
.LVL468:
	str	r6, [r4, #4]
	str	r2, [r4, #8]
	str	r3, [r4, #0]
	b	.L688
.LVL469:
.L707:
	.loc 29 177 0
	ldr	r0, .L709
	bl	lookup_fault_depth_mismatch_new
.LVL470:
	.loc 29 180 0
	mov	r3, #2
	stmia	r4, {r3, r9, sl}
	b	.L688
.LVL471:
.L706:
.LBB3345:
.LBB3346:
	.loc 25 2097 0
	bics	r5, r2, #63
.LVL472:
	bne	.L708
.LVL473:
	.loc 25 2098 0
	and	r2, r2, #63
.LVL474:
	.loc 29 170 0
	ldr	r3, .L709
.LVL475:
	.loc 25 2101 0
	mov	ip, ip, asl #2
.LVL476:
	orr	r1, ip, r2, asl #8
.LVL477:
	.loc 25 2104 0
	orr	r1, r1, #3
	.loc 29 173 0
	mov	r2, #2
	stmib	r4, {r5, sl}
	.loc 29 170 0
	str	r1, [r3, #0]
	str	r0, [r3, #4]
.LVL478:
	.loc 29 173 0
	str	r2, [r4, #0]
	b	.L688
.LVL479:
.L705:
.LBE3346:
.LBE3345:
	.loc 29 161 0 discriminator 1
	ldr	r0, .L709+4
.LVL480:
	ldr	r1, .L709+8
.LVL481:
	mov	r2, #161
.LVL482:
	ldr	r3, .L709+12
.LVL483:
	bl	_assert_fail
.LVL484:
.L704:
	bl	cap_cnode_cap_get_capCNodeRadix.part.29
.LVL485:
.L708:
.LBB3348:
.LBB3347:
	.loc 25 2097 0
	ldr	r0, .L709+16
.LVL486:
	ldr	r1, .L709+20
.LVL487:
	ldr	r2, .L709+24
.LVL488:
	ldr	r3, .L709+28
.LVL489:
	bl	_assert_fail
.LVL490:
.L710:
	.align	2
.L709:
	.word	current_lookup_fault
	.word	.LC47
	.word	.LC48
	.word	.LANCHOR3+2060
	.word	.LC9
	.word	.LC5
	.word	2097
	.word	.LANCHOR3+2080
.LBE3347:
.LBE3348:
	.cfi_endproc
.LFE488:
	.size	resolveAddressBits, .-resolveAddressBits
	.align	2
	.global	lookupSlot
	.type	lookupSlot, %function
lookupSlot:
.LFB483:
	.loc 29 59 0
	.cfi_startproc
	@ args = 0, pretend = 0, frame = 24
	@ frame_needed = 0, uses_anonymous_args = 0
.LVL491:
	.loc 29 64 0
	bic	r1, r1, #508
.LVL492:
	bic	r1, r1, #3
	.loc 29 59 0
	stmfd	sp!, {r4, lr}
.LCFI90:
	.cfi_def_cfa_offset 8
	.cfi_offset 4, -8
	.cfi_offset 14, -4
	mov	r4, r0
	sub	sp, sp, #32
.LCFI91:
	.cfi_def_cfa_offset 40
	.loc 29 64 0
	ldmia	r1, {r0, r1}
.LVL493:
	add	ip, sp, #12
	.loc 29 65 0
	mov	lr, #32
	.loc 29 64 0
	stmia	ip, {r0, r1}
	.loc 29 59 0
	mov	r3, r2
	.loc 29 65 0
	str	lr, [sp, #0]
	add	r0, sp, #20
	ldmia	ip, {r1, r2}
.LVL494:
	bl	resolveAddressBits
.LVL495:
	.loc 29 69 0
	ldr	r2, [sp, #20]
	.loc 29 68 0
	ldr	r3, [sp, #24]
.LVL496:
	.loc 29 70 0
	mov	r0, r4
	.loc 29 69 0
	stmia	r4, {r2, r3}
	.loc 29 70 0
	add	sp, sp, #32
	ldmfd	sp!, {r4, pc}
	.cfi_endproc
.LFE483:
	.size	lookupSlot, .-lookupSlot
	.align	2
	.global	lookupCapAndSlot
	.type	lookupCapAndSlot, %function
lookupCapAndSlot:
.LFB482:
	.loc 29 39 0
	.cfi_startproc
	@ args = 0, pretend = 0, frame = 8
	@ frame_needed = 0, uses_anonymous_args = 0
.LVL497:
	stmfd	sp!, {r4, lr}
.LCFI92:
	.cfi_def_cfa_offset 8
	.cfi_offset 4, -8
	.cfi_offset 14, -4
	sub	sp, sp, #8
.LCFI93:
	.cfi_def_cfa_offset 16
	.loc 29 39 0
	mov	r4, r0
	.loc 29 43 0
	mov	r0, sp
.LVL498:
	bl	lookupSlot
.LVL499:
	ldmia	sp, {r2, r3}
.LVL500:
	.loc 29 44 0
	cmp	r2, #0
.LVL501:
.LBB3349:
	.loc 25 800 0
	movne	r3, #0
.LVL502:
.LBE3349:
	.loc 29 53 0
	ldmeqia	r3, {r0, r1}
.LBB3350:
	.loc 25 800 0
	stmneia	r4, {r2, r3}
	strne	r3, [r4, #8]
.LVL503:
	.loc 29 48 0
	strne	r3, [r4, #12]
.LBE3350:
	.loc 29 54 0
	streq	r2, [r4, #0]
	streq	r3, [r4, #12]
	.loc 29 53 0
	stmeqib	r4, {r0, r1}
	.loc 29 55 0
	mov	r0, r4
	add	sp, sp, #8
	ldmfd	sp!, {r4, pc}
	.cfi_endproc
.LFE482:
	.size	lookupCapAndSlot, .-lookupCapAndSlot
	.align	2
	.global	lookupCap
	.type	lookupCap, %function
lookupCap:
.LFB481:
	.loc 29 21 0
	.cfi_startproc
	@ args = 0, pretend = 0, frame = 8
	@ frame_needed = 0, uses_anonymous_args = 0
.LVL504:
	stmfd	sp!, {r4, lr}
.LCFI94:
	.cfi_def_cfa_offset 8
	.cfi_offset 4, -8
	.cfi_offset 14, -4
	sub	sp, sp, #8
.LCFI95:
	.cfi_def_cfa_offset 16
	.loc 29 21 0
	mov	r4, r0
	.loc 29 25 0
	mov	r0, sp
.LVL505:
	bl	lookupSlot
.LVL506:
	ldr	r3, [sp, #0]
.LVL507:
	.loc 29 26 0
	cmp	r3, #0
.LVL508:
.LBB3351:
	.loc 25 800 0
	movne	r2, #0
.LBE3351:
	.loc 29 33 0
	ldreq	r2, [sp, #4]
.LBB3352:
	.loc 29 29 0
	strne	r3, [r4, #0]
.LBE3352:
	.loc 29 34 0
	streq	r3, [r4, #0]
	.loc 29 33 0
	ldmeqia	r2, {r0, r1}
.LBB3353:
	.loc 25 800 0
	strne	r2, [r4, #4]
	strne	r2, [r4, #8]
.LVL509:
.LBE3353:
	.loc 29 33 0
	stmeqib	r4, {r0, r1}
	.loc 29 35 0
	mov	r0, r4
	add	sp, sp, #8
	ldmfd	sp!, {r4, pc}
	.cfi_endproc
.LFE481:
	.size	lookupCap, .-lookupCap
	.align	2
	.global	lookupSlotForCNodeOp
	.type	lookupSlotForCNodeOp, %function
lookupSlotForCNodeOp:
.LFB484:
	.loc 29 75 0
	.cfi_startproc
	@ args = 8, pretend = 0, frame = 24
	@ frame_needed = 0, uses_anonymous_args = 0
.LVL510:
	stmfd	sp!, {r4, r5, r6, lr}
.LCFI96:
	.cfi_def_cfa_offset 16
	.cfi_offset 4, -16
	.cfi_offset 5, -12
	.cfi_offset 6, -8
	.cfi_offset 14, -4
	sub	sp, sp, #32
.LCFI97:
	.cfi_def_cfa_offset 48
	.loc 29 75 0
	add	ip, sp, #8
	mov	r4, r0
	stmia	ip, {r2, r3}
	.file 30 "/home/zj/seL4/myseL4/kernel/src/config/default_domain.c"
	.loc 30 19 0
	mov	r3, r2
.LVL511:
.LBB3354:
.LBB3355:
	.loc 25 777 0
	and	r2, r2, #14
.LVL512:
	cmp	r2, #14
	.loc 25 778 0
	andne	r3, r3, #15
.LVL513:
	.loc 25 779 0
	uxtbeq	r3, r3
.LBE3355:
.LBE3354:
	.loc 29 81 0
	cmp	r3, #10
	.loc 29 75 0
	mov	r6, r1
	ldr	r2, [sp, #52]
	.loc 29 81 0
	bne	.L726
	.loc 29 89 0
	sub	r3, r2, #1
	cmp	r3, #31
	bhi	.L727
	.loc 29 97 0
	str	r2, [sp, #0]
	add	r0, sp, #20
.LVL514:
	ldmia	ip, {r1, r2}
.LVL515:
	ldr	r3, [sp, #48]
	bl	resolveAddressBits
.LVL516:
	.loc 29 98 0
	ldr	r5, [sp, #20]
	.loc 29 97 0
	ldr	r2, [sp, #28]
.LVL517:
	.loc 29 98 0
	cmp	r5, #0
	bne	.L728
	.loc 29 106 0
	cmp	r2, #0
	bne	.L729
	.loc 29 115 0
	ldr	r3, [sp, #24]
.LVL518:
	.loc 29 117 0
	stmia	r4, {r2, r3}
.LVL519:
.L718:
	.loc 29 118 0
	mov	r0, r4
	add	sp, sp, #32
	ldmfd	sp!, {r4, r5, r6, pc}
.LVL520:
.L726:
	.loc 29 82 0
	ldr	r1, .L730
.LVL521:
	.loc 29 84 0
	ldr	r2, .L730+4
	mov	r3, #0
	.loc 29 86 0
	mov	r0, #3
.LVL522:
	.loc 29 82 0
	mov	ip, #6
.LVL523:
	.loc 29 83 0
	str	r6, [r1, #20]
.LVL524:
	.loc 29 82 0
	str	ip, [r1, #24]
	.loc 29 84 0
	str	r3, [r2, #0]
	str	r3, [r2, #4]
.LVL525:
	.loc 29 86 0
	stmia	r4, {r0, r3}
	b	.L718
.LVL526:
.L729:
	.loc 29 107 0
	ldr	r3, .L730
	mov	ip, #6
	.loc 29 109 0
	ldr	r0, .L730+4
	mov	r1, r5
	.loc 29 108 0
	str	r6, [r3, #20]
	.loc 29 107 0
	str	ip, [r3, #24]
	.loc 29 109 0
	bl	lookup_fault_depth_mismatch_new
.LVL527:
	.loc 29 112 0
	mov	r3, #3
	stmia	r4, {r3, r5}
	b	.L718
.LVL528:
.L728:
	.loc 29 99 0
	ldr	r3, .L730
	.loc 29 103 0
	mov	r1, #3
	mov	r2, #0
.LVL529:
	.loc 29 99 0
	mov	r0, #6
	.loc 29 100 0
	str	r6, [r3, #20]
.LVL530:
	.loc 29 99 0
	str	r0, [r3, #24]
	.loc 29 103 0
	stmia	r4, {r1, r2}
	b	.L718
.LVL531:
.L727:
	.loc 29 90 0
	ldr	r3, .L730
	.loc 29 94 0
	mov	r1, #3
.LVL532:
	mov	r2, #0
	.loc 29 90 0
	mov	r5, #4
	.loc 29 91 0
	mov	ip, #1
.LVL533:
	.loc 29 92 0
	mov	r0, #32
.LVL534:
	.loc 29 90 0
	str	r5, [r3, #24]
	.loc 29 91 0
	str	ip, [r3, #8]
	.loc 29 92 0
	str	r0, [r3, #12]
.LVL535:
	.loc 29 94 0
	stmia	r4, {r1, r2}
	b	.L718
.L731:
	.align	2
.L730:
	.word	current_syscall_error
	.word	current_lookup_fault
	.cfi_endproc
.LFE484:
	.size	lookupSlotForCNodeOp, .-lookupSlotForCNodeOp
	.align	2
	.global	lookupPivotSlot
	.type	lookupPivotSlot, %function
lookupPivotSlot:
.LFB487:
	.loc 29 134 0
	.cfi_startproc
	@ args = 4, pretend = 0, frame = 8
	@ frame_needed = 0, uses_anonymous_args = 0
.LVL536:
	stmfd	sp!, {r4, lr}
.LCFI98:
	.cfi_def_cfa_offset 8
	.cfi_offset 4, -8
	.cfi_offset 14, -4
	sub	sp, sp, #16
.LCFI99:
	.cfi_def_cfa_offset 24
	.loc 29 134 0
	add	ip, sp, #8
	ldr	lr, [sp, #24]
	.loc 29 135 0
	str	r3, [sp, #0]
	.loc 29 134 0
	mov	r4, r0
	stmia	ip, {r1, r2}
	.loc 29 135 0
	str	lr, [sp, #4]
	mov	r1, #1
	ldmia	ip, {r2, r3}
.LVL537:
	bl	lookupSlotForCNodeOp
.LVL538:
	.loc 29 136 0
	mov	r0, r4
	add	sp, sp, #16
	ldmfd	sp!, {r4, pc}
	.cfi_endproc
.LFE487:
	.size	lookupPivotSlot, .-lookupPivotSlot
	.align	2
	.global	lookupTargetSlot
	.type	lookupTargetSlot, %function
lookupTargetSlot:
.LFB486:
	.loc 29 128 0
	.cfi_startproc
	@ args = 4, pretend = 0, frame = 8
	@ frame_needed = 0, uses_anonymous_args = 0
.LVL539:
	stmfd	sp!, {r4, lr}
.LCFI100:
	.cfi_def_cfa_offset 8
	.cfi_offset 4, -8
	.cfi_offset 14, -4
	sub	sp, sp, #16
.LCFI101:
	.cfi_def_cfa_offset 24
	.loc 29 128 0
	add	ip, sp, #8
	ldr	lr, [sp, #24]
	.loc 29 129 0
	str	r3, [sp, #0]
	.loc 29 128 0
	mov	r4, r0
	stmia	ip, {r1, r2}
	.loc 29 129 0
	str	lr, [sp, #4]
	mov	r1, #0
	ldmia	ip, {r2, r3}
.LVL540:
	bl	lookupSlotForCNodeOp
.LVL541:
	.loc 29 130 0
	mov	r0, r4
	add	sp, sp, #16
	ldmfd	sp!, {r4, pc}
	.cfi_endproc
.LFE486:
	.size	lookupTargetSlot, .-lookupTargetSlot
	.align	2
	.global	lookupSourceSlot
	.type	lookupSourceSlot, %function
lookupSourceSlot:
.LFB485:
	.loc 29 122 0
	.cfi_startproc
	@ args = 4, pretend = 0, frame = 8
	@ frame_needed = 0, uses_anonymous_args = 0
.LVL542:
	stmfd	sp!, {r4, lr}
.LCFI102:
	.cfi_def_cfa_offset 8
	.cfi_offset 4, -8
	.cfi_offset 14, -4
	sub	sp, sp, #16
.LCFI103:
	.cfi_def_cfa_offset 24
	.loc 29 122 0
	add	ip, sp, #8
	ldr	lr, [sp, #24]
	.loc 29 123 0
	str	r3, [sp, #0]
	.loc 29 122 0
	mov	r4, r0
	stmia	ip, {r1, r2}
	.loc 29 123 0
	str	lr, [sp, #4]
	mov	r1, #1
	ldmia	ip, {r2, r3}
.LVL543:
	bl	lookupSlotForCNodeOp
.LVL544:
	.loc 29 124 0
	mov	r0, r4
	add	sp, sp, #16
	ldmfd	sp!, {r4, pc}
	.cfi_endproc
.LFE485:
	.size	lookupSourceSlot, .-lookupSourceSlot
	.section	.text.unlikely
	.align	2
	.type	cap_asid_pool_cap_new.part.115, %function
cap_asid_pool_cap_new.part.115:
.LFB776:
	.loc 25 1487 0
	.cfi_startproc
	@ Volatile: function does not return.
	@ args = 0, pretend = 0, frame = 0
	@ frame_needed = 0, uses_anonymous_args = 0
	stmfd	sp!, {r3, lr}
.LCFI104:
	.cfi_def_cfa_offset 8
	.cfi_offset 3, -8
	.cfi_offset 14, -4
	.loc 25 1494 0
	ldr	r0, .L736
	ldr	r1, .L736+4
	ldr	r2, .L736+8
	ldr	r3, .L736+12
	bl	_assert_fail
.LVL545:
.L737:
	.align	2
.L736:
	.word	.LC49
	.word	.LC5
	.word	1494
	.word	.LANCHOR3+2112
	.cfi_endproc
.LFE776:
	.size	cap_asid_pool_cap_new.part.115, .-cap_asid_pool_cap_new.part.115
	.section	.boot.text
	.align	2
	.global	insert_region
	.type	insert_region, %function
insert_region:
.LFB460:
	.loc 21 29 0
	.cfi_startproc
	@ args = 0, pretend = 0, frame = 8
	@ frame_needed = 0, uses_anonymous_args = 0
	str	lr, [sp, #-4]!
.LCFI105:
	.cfi_def_cfa_offset 4
	.cfi_offset 14, -4
	sub	sp, sp, #12
.LCFI106:
	.cfi_def_cfa_offset 16
	.loc 21 29 0
	add	r3, sp, #8
	stmdb	r3, {r0, r1}
	ldmia	sp, {r1, r2}
.LVL546:
	.loc 21 32 0
	cmp	r1, r2
	bhi	.L745
.LVL547:
	.loc 21 34 0
	moveq	r0, #1
	.loc 21 33 0
	beq	.L740
.LVL548:
	.loc 21 37 0 discriminator 1
	ldr	r3, .L747
	ldr	ip, [r3, #0]
	ldr	r0, [r3, #4]
	cmp	ip, r0
	beq	.L741
.LVL549:
	.loc 21 37 0 is_stmt 0
	ldr	r0, [r3, #12]
	ldr	ip, [r3, #8]
	cmp	ip, r0
	.loc 21 42 0 is_stmt 1
	movne	r0, #0
	.loc 21 37 0
	beq	.L746
.LVL550:
.L740:
	.loc 21 43 0
	add	sp, sp, #12
	ldmfd	sp!, {pc}
.LVL551:
.L746:
	.loc 21 37 0
	add	r3, r3, #8
.LVL552:
.L741:
	.loc 21 38 0
	stmia	r3, {r1, r2}
	.loc 21 39 0
	mov	r0, #1
	b	.L740
.LVL553:
.L745:
.LBB3358:
.LBB3359:
	.loc 21 32 0
	ldr	r0, .L747+4
	ldr	r1, .L747+8
	mov	r2, #32
.LVL554:
	ldr	r3, .L747+12
	bl	_assert_fail
.LVL555:
.L748:
	.align	2
.L747:
	.word	.LANCHOR2
	.word	.LC50
	.word	.LC51
	.word	.LANCHOR3+2136
.LBE3359:
.LBE3358:
	.cfi_endproc
.LFE460:
	.size	insert_region, .-insert_region
	.section	.text.unlikely
	.align	2
	.type	cap_page_table_cap_new.part.125, %function
cap_page_table_cap_new.part.125:
.LFB786:
	.loc 25 1523 0
	.cfi_startproc
	@ Volatile: function does not return.
	@ args = 0, pretend = 0, frame = 0
	@ frame_needed = 0, uses_anonymous_args = 0
	stmfd	sp!, {r3, lr}
.LCFI107:
	.cfi_def_cfa_offset 8
	.cfi_offset 3, -8
	.cfi_offset 14, -4
	.loc 25 1530 0
	ldr	r0, .L750
	ldr	r1, .L750+4
	ldr	r2, .L750+8
	ldr	r3, .L750+12
	bl	_assert_fail
.LVL556:
.L751:
	.align	2
.L750:
	.word	.LC52
	.word	.LC5
	.word	1530
	.word	.LANCHOR3+2152
	.cfi_endproc
.LFE786:
	.size	cap_page_table_cap_new.part.125, .-cap_page_table_cap_new.part.125
	.align	2
	.type	cap_page_directory_cap_new.part.126, %function
cap_page_directory_cap_new.part.126:
.LFB787:
	.loc 25 1630 0
	.cfi_startproc
	@ Volatile: function does not return.
	@ args = 0, pretend = 0, frame = 0
	@ frame_needed = 0, uses_anonymous_args = 0
	stmfd	sp!, {r3, lr}
.LCFI108:
	.cfi_def_cfa_offset 8
	.cfi_offset 3, -8
	.cfi_offset 14, -4
	.loc 25 1637 0
	ldr	r0, .L753
	ldr	r1, .L753+4
	ldr	r2, .L753+8
	ldr	r3, .L753+12
	bl	_assert_fail
.LVL557:
.L754:
	.align	2
.L753:
	.word	.LC53
	.word	.LC5
	.word	1637
	.word	.LANCHOR3+2176
	.cfi_endproc
.LFE787:
	.size	cap_page_directory_cap_new.part.126, .-cap_page_directory_cap_new.part.126
	.align	2
	.type	cap_small_frame_cap_get_capFVMRights.part.127, %function
cap_small_frame_cap_get_capFVMRights.part.127:
.LFB788:
	.loc 25 1291 0
	.cfi_startproc
	@ Volatile: function does not return.
	@ args = 0, pretend = 0, frame = 0
	@ frame_needed = 0, uses_anonymous_args = 0
	stmfd	sp!, {r3, lr}
.LCFI109:
	.cfi_def_cfa_offset 8
	.cfi_offset 3, -8
	.cfi_offset 14, -4
	.loc 25 1292 0
	ldr	r0, .L756
	ldr	r1, .L756+4
	ldr	r2, .L756+8
	ldr	r3, .L756+12
	bl	_assert_fail
.LVL558:
.L757:
	.align	2
.L756:
	.word	.LC25
	.word	.LC5
	.word	1293
	.word	.LANCHOR3+2204
	.cfi_endproc
.LFE788:
	.size	cap_small_frame_cap_get_capFVMRights.part.127, .-cap_small_frame_cap_get_capFVMRights.part.127
	.align	2
	.type	cap_frame_cap_get_capFVMRights.part.128, %function
cap_frame_cap_get_capFVMRights.part.128:
.LFB789:
	.loc 25 1419 0
	.cfi_startproc
	@ Volatile: function does not return.
	@ args = 0, pretend = 0, frame = 0
	@ frame_needed = 0, uses_anonymous_args = 0
	stmfd	sp!, {r3, lr}
.LCFI110:
	.cfi_def_cfa_offset 8
	.cfi_offset 3, -8
	.cfi_offset 14, -4
	.loc 25 1420 0
	ldr	r0, .L759
	ldr	r1, .L759+4
	ldr	r2, .L759+8
	ldr	r3, .L759+12
	bl	_assert_fail
.LVL559:
.L760:
	.align	2
.L759:
	.word	.LC26
	.word	.LC5
	.word	1421
	.word	.LANCHOR3+2244
	.cfi_endproc
.LFE789:
	.size	cap_frame_cap_get_capFVMRights.part.128, .-cap_frame_cap_get_capFVMRights.part.128
	.align	2
	.type	generic_frame_cap_get_capFVMRights.part.129, %function
generic_frame_cap_get_capFVMRights.part.129:
.LFB790:
	.loc 28 363 0
	.cfi_startproc
	@ Volatile: function does not return.
	@ args = 0, pretend = 0, frame = 0
	@ frame_needed = 0, uses_anonymous_args = 0
	stmfd	sp!, {r3, lr}
.LCFI111:
	.cfi_def_cfa_offset 8
	.cfi_offset 3, -8
	.cfi_offset 14, -4
	.loc 28 368 0
	ldr	r0, .L762
	ldr	r1, .L762+4
	ldr	r2, .L762+8
	ldr	r3, .L762+12
	bl	_assert_fail
.LVL560:
.L763:
	.align	2
.L762:
	.word	.LC27
	.word	.LC28
	.word	369
	.word	.LANCHOR3+2276
	.cfi_endproc
.LFE790:
	.size	generic_frame_cap_get_capFVMRights.part.129, .-generic_frame_cap_get_capFVMRights.part.129
	.text
	.align	2
	.global	Arch_hasRecycleRights
	.type	Arch_hasRecycleRights, %function
Arch_hasRecycleRights:
.LFB445:
	.loc 19 249 0
	.cfi_startproc
	@ args = 0, pretend = 0, frame = 16
	@ frame_needed = 0, uses_anonymous_args = 0
	str	lr, [sp, #-4]!
.LCFI112:
	.cfi_def_cfa_offset 4
	.cfi_offset 14, -4
.LBB3370:
.LBB3371:
	.loc 25 777 0
	and	ip, r0, #14
.LBE3371:
.LBE3370:
	.loc 19 249 0
	sub	sp, sp, #20
.LCFI113:
	.cfi_def_cfa_offset 24
.LBB3374:
.LBB3372:
	.loc 25 777 0
	cmp	ip, #14
.LBE3372:
.LBE3374:
	.loc 19 249 0
	stmia	sp, {r0, r1}
.LBB3375:
.LBB3373:
	.loc 25 778 0
	andne	r1, r0, #15
	.loc 25 779 0
	uxtbeq	r1, r0
.LBE3373:
.LBE3375:
	.loc 19 250 0
	cmp	r1, #1
	.loc 19 249 0
	mov	r3, sp
	mov	r2, r0
.LVL561:
	.loc 19 250 0
	beq	.L768
	cmp	r1, #3
	.loc 19 256 0
	movne	r0, #1
.LVL562:
	.loc 19 250 0
	beq	.L768
.LVL563:
.L767:
	.loc 19 258 0
	add	sp, sp, #20
	ldmfd	sp!, {pc}
.LVL564:
.L768:
	ldmia	r3, {r0, r1}
	add	r3, sp, #16
.LBB3376:
.LBB3377:
.LBB3378:
.LBB3379:
	.loc 25 777 0
	cmp	ip, #14
	stmdb	r3, {r0, r1}
.LVL565:
	.loc 25 778 0
	andne	r3, r2, #15
	.loc 25 779 0
	uxtbeq	r3, r2
.LBE3379:
.LBE3378:
	.loc 28 368 0
	bic	r1, r3, #2
	cmp	r1, #1
	bne	.L787
	.loc 28 371 0
	cmp	r3, #1
	beq	.L773
	cmp	r3, #3
	movne	r0, #0
	bne	.L767
.LBB3380:
.LBB3381:
	.loc 25 1420 0
	and	r2, r2, #15
.LVL566:
	cmp	r2, #3
	ldr	r0, [sp, #12]
.LVL567:
	bne	.L788
	.loc 25 1423 0
	and	r0, r0, #786432
.LVL568:
	subs	r3, r0, #786432
	rsbs	r0, r3, #0
	adcs	r0, r0, r3
	b	.L767
.LVL569:
.L773:
.LBE3381:
.LBE3380:
.LBB3382:
.LBB3383:
	.loc 25 1292 0
	and	r2, r2, #15
.LVL570:
	cmp	r2, #1
	ldr	r0, [sp, #12]
.LVL571:
	bne	.L789
	.loc 25 1295 0
	and	r0, r0, #3145728
.LVL572:
	subs	r2, r0, #3145728
	rsbs	r0, r2, #0
	adcs	r0, r0, r2
	b	.L767
.LVL573:
.L787:
	bl	generic_frame_cap_get_capFVMRights.part.129
.LVL574:
.L789:
	bl	cap_small_frame_cap_get_capFVMRights.part.127
.LVL575:
.L788:
	bl	cap_frame_cap_get_capFVMRights.part.128
.LVL576:
.LBE3383:
.LBE3382:
.LBE3377:
.LBE3376:
	.cfi_endproc
.LFE445:
	.size	Arch_hasRecycleRights, .-Arch_hasRecycleRights
	.section	.text.unlikely
	.align	2
	.type	cap_page_table_cap_get_capPTIsMapped.part.130, %function
cap_page_table_cap_get_capPTIsMapped.part.130:
.LFB791:
	.loc 25 1549 0
	.cfi_startproc
	@ Volatile: function does not return.
	@ args = 0, pretend = 0, frame = 0
	@ frame_needed = 0, uses_anonymous_args = 0
	stmfd	sp!, {r3, lr}
.LCFI114:
	.cfi_def_cfa_offset 8
	.cfi_offset 3, -8
	.cfi_offset 14, -4
	.loc 25 1550 0
	ldr	r0, .L791
	ldr	r1, .L791+4
	ldr	r2, .L791+8
	ldr	r3, .L791+12
	bl	_assert_fail
.LVL577:
.L792:
	.align	2
.L791:
	.word	.LC29
	.word	.LC5
	.word	1551
	.word	.LANCHOR3+2312
	.cfi_endproc
.LFE791:
	.size	cap_page_table_cap_get_capPTIsMapped.part.130, .-cap_page_table_cap_get_capPTIsMapped.part.130
	.align	2
	.type	cap_page_table_cap_get_capPTMappedASID.part.131, %function
cap_page_table_cap_get_capPTMappedASID.part.131:
.LFB792:
	.loc 25 1582 0
	.cfi_startproc
	@ Volatile: function does not return.
	@ args = 0, pretend = 0, frame = 0
	@ frame_needed = 0, uses_anonymous_args = 0
	stmfd	sp!, {r3, lr}
.LCFI115:
	.cfi_def_cfa_offset 8
	.cfi_offset 3, -8
	.cfi_offset 14, -4
	.loc 25 1583 0
	mov	r2, #1584
	ldr	r0, .L794
	ldr	r1, .L794+4
	ldr	r3, .L794+8
	bl	_assert_fail
.LVL578:
.L795:
	.align	2
.L794:
	.word	.LC29
	.word	.LC5
	.word	.LANCHOR3+2352
	.cfi_endproc
.LFE792:
	.size	cap_page_table_cap_get_capPTMappedASID.part.131, .-cap_page_table_cap_get_capPTMappedASID.part.131
	.align	2
	.type	cap_page_table_cap_get_capPTMappedAddress.part.132, %function
cap_page_table_cap_get_capPTMappedAddress.part.132:
.LFB793:
	.loc 25 1602 0
	.cfi_startproc
	@ Volatile: function does not return.
	@ args = 0, pretend = 0, frame = 0
	@ frame_needed = 0, uses_anonymous_args = 0
	stmfd	sp!, {r3, lr}
.LCFI116:
	.cfi_def_cfa_offset 8
	.cfi_offset 3, -8
	.cfi_offset 14, -4
	.loc 25 1603 0
	ldr	r0, .L797
	ldr	r1, .L797+4
	ldr	r2, .L797+8
	ldr	r3, .L797+12
	bl	_assert_fail
.LVL579:
.L798:
	.align	2
.L797:
	.word	.LC29
	.word	.LC5
	.word	1604
	.word	.LANCHOR3+2392
	.cfi_endproc
.LFE793:
	.size	cap_page_table_cap_get_capPTMappedAddress.part.132, .-cap_page_table_cap_get_capPTMappedAddress.part.132
	.align	2
	.type	cap_page_directory_cap_get_capPDIsMapped.isra.133.part.134, %function
cap_page_directory_cap_get_capPDIsMapped.isra.133.part.134:
.LFB795:
	.loc 25 1682 0
	.cfi_startproc
	@ Volatile: function does not return.
	@ args = 0, pretend = 0, frame = 0
	@ frame_needed = 0, uses_anonymous_args = 0
	stmfd	sp!, {r3, lr}
.LCFI117:
	.cfi_def_cfa_offset 8
	.cfi_offset 3, -8
	.cfi_offset 14, -4
	.loc 25 1683 0
	ldr	r0, .L800
	ldr	r1, .L800+4
	ldr	r2, .L800+8
	ldr	r3, .L800+12
	bl	_assert_fail
.LVL580:
.L801:
	.align	2
.L800:
	.word	.LC30
	.word	.LC5
	.word	1684
	.word	.LANCHOR3+2436
	.cfi_endproc
.LFE795:
	.size	cap_page_directory_cap_get_capPDIsMapped.isra.133.part.134, .-cap_page_directory_cap_get_capPDIsMapped.isra.133.part.134
	.text
	.align	2
	.global	isValidVTableRoot
	.type	isValidVTableRoot, %function
isValidVTableRoot:
.LFB354:
	.loc 10 749 0
	.cfi_startproc
	@ args = 0, pretend = 0, frame = 8
	@ frame_needed = 0, uses_anonymous_args = 0
	str	lr, [sp, #-4]!
.LCFI118:
	.cfi_def_cfa_offset 4
	.cfi_offset 14, -4
	sub	sp, sp, #12
.LCFI119:
	.cfi_def_cfa_offset 16
	.loc 10 749 0
	add	r3, sp, #8
	stmdb	r3, {r0, r1}
	ldr	r3, [sp, #0]
.LVL581:
.LBB3388:
.LBB3389:
	.loc 25 777 0
	and	r2, r3, #14
	cmp	r2, #14
	.loc 25 778 0
	andne	r2, r3, #15
	.loc 25 779 0
	uxtbeq	r2, r3
.LBE3389:
.LBE3388:
	.loc 10 750 0
	cmp	r2, #9
	movne	r0, #0
	beq	.L808
.L805:
	.loc 10 752 0 discriminator 4
	add	sp, sp, #12
	ldmfd	sp!, {pc}
.L808:
.LVL582:
.LBB3390:
.LBB3391:
	.loc 10 750 0
	tst	r3, #16
	.loc 25 1683 0
	and	r2, r3, #15
	.loc 10 750 0
	moveq	r0, #0
	movne	r0, #1
	.loc 25 1683 0
	cmp	r2, #9
	beq	.L805
	bl	cap_page_directory_cap_get_capPDIsMapped.isra.133.part.134
.LVL583:
.LBE3391:
.LBE3390:
	.cfi_endproc
.LFE354:
	.size	isValidVTableRoot, .-isValidVTableRoot
	.section	.text.unlikely
	.align	2
	.type	cap_page_directory_cap_get_capPDMappedASID.part.135, %function
cap_page_directory_cap_get_capPDMappedASID.part.135:
.LFB796:
	.loc 25 1653 0
	.cfi_startproc
	@ Volatile: function does not return.
	@ args = 0, pretend = 0, frame = 0
	@ frame_needed = 0, uses_anonymous_args = 0
	stmfd	sp!, {r3, lr}
.LCFI120:
	.cfi_def_cfa_offset 8
	.cfi_offset 3, -8
	.cfi_offset 14, -4
	.loc 25 1654 0
	ldr	r0, .L810
	ldr	r1, .L810+4
	ldr	r2, .L810+8
	ldr	r3, .L810+12
	bl	_assert_fail
.LVL584:
.L811:
	.align	2
.L810:
	.word	.LC30
	.word	.LC5
	.word	1655
	.word	.LANCHOR3+2480
	.cfi_endproc
.LFE796:
	.size	cap_page_directory_cap_get_capPDMappedASID.part.135, .-cap_page_directory_cap_get_capPDMappedASID.part.135
	.align	2
	.type	cap_page_table_cap_set_capPTIsMapped.part.136, %function
cap_page_table_cap_set_capPTIsMapped.part.136:
.LFB797:
	.loc 25 1557 0
	.cfi_startproc
	@ Volatile: function does not return.
	@ args = 0, pretend = 0, frame = 0
	@ frame_needed = 0, uses_anonymous_args = 0
	stmfd	sp!, {r3, lr}
.LCFI121:
	.cfi_def_cfa_offset 8
	.cfi_offset 3, -8
	.cfi_offset 14, -4
	.loc 25 1558 0
	ldr	r0, .L813
	ldr	r1, .L813+4
	ldr	r2, .L813+8
	ldr	r3, .L813+12
	bl	_assert_fail
.LVL585:
.L814:
	.align	2
.L813:
	.word	.LC29
	.word	.LC5
	.word	1559
	.word	.LANCHOR3+2524
	.cfi_endproc
.LFE797:
	.size	cap_page_table_cap_set_capPTIsMapped.part.136, .-cap_page_table_cap_set_capPTIsMapped.part.136
	.align	2
	.type	cap_asid_pool_cap_get_capASIDBase.part.137, %function
cap_asid_pool_cap_get_capASIDBase.part.137:
.LFB798:
	.loc 25 1507 0
	.cfi_startproc
	@ Volatile: function does not return.
	@ args = 0, pretend = 0, frame = 0
	@ frame_needed = 0, uses_anonymous_args = 0
	stmfd	sp!, {r3, lr}
.LCFI122:
	.cfi_def_cfa_offset 8
	.cfi_offset 3, -8
	.cfi_offset 14, -4
	.loc 25 1508 0
	ldr	r0, .L816
	ldr	r1, .L816+4
	ldr	r2, .L816+8
	ldr	r3, .L816+12
	bl	_assert_fail
.LVL586:
.L817:
	.align	2
.L816:
	.word	.LC31
	.word	.LC5
	.word	1509
	.word	.LANCHOR3+2564
	.cfi_endproc
.LFE798:
	.size	cap_asid_pool_cap_get_capASIDBase.part.137, .-cap_asid_pool_cap_get_capASIDBase.part.137
	.align	2
	.type	cap_small_frame_cap_get_capFMappedAddress.part.139, %function
cap_small_frame_cap_get_capFMappedAddress.part.139:
.LFB800:
	.loc 25 1311 0
	.cfi_startproc
	@ Volatile: function does not return.
	@ args = 0, pretend = 0, frame = 0
	@ frame_needed = 0, uses_anonymous_args = 0
	stmfd	sp!, {r3, lr}
.LCFI123:
	.cfi_def_cfa_offset 8
	.cfi_offset 3, -8
	.cfi_offset 14, -4
	.loc 25 1312 0
	ldr	r0, .L819
	ldr	r1, .L819+4
	ldr	r2, .L819+8
	ldr	r3, .L819+12
	bl	_assert_fail
.LVL587:
.L820:
	.align	2
.L819:
	.word	.LC25
	.word	.LC5
	.word	1313
	.word	.LANCHOR3+2600
	.cfi_endproc
.LFE800:
	.size	cap_small_frame_cap_get_capFMappedAddress.part.139, .-cap_small_frame_cap_get_capFMappedAddress.part.139
	.align	2
	.type	cap_frame_cap_get_capFMappedAddress.part.141, %function
cap_frame_cap_get_capFMappedAddress.part.141:
.LFB802:
	.loc 25 1439 0
	.cfi_startproc
	@ Volatile: function does not return.
	@ args = 0, pretend = 0, frame = 0
	@ frame_needed = 0, uses_anonymous_args = 0
	stmfd	sp!, {r3, lr}
.LCFI124:
	.cfi_def_cfa_offset 8
	.cfi_offset 3, -8
	.cfi_offset 14, -4
	.loc 25 1440 0
	ldr	r0, .L822
	ldr	r1, .L822+4
	ldr	r2, .L822+8
	ldr	r3, .L822+12
	bl	_assert_fail
.LVL588:
.L823:
	.align	2
.L822:
	.word	.LC26
	.word	.LC5
	.word	1441
	.word	.LANCHOR3+2644
	.cfi_endproc
.LFE802:
	.size	cap_frame_cap_get_capFMappedAddress.part.141, .-cap_frame_cap_get_capFMappedAddress.part.141
	.text
	.align	2
	.global	Arch_maskCapRights
	.type	Arch_maskCapRights, %function
Arch_maskCapRights:
.LFB441:
	.loc 19 82 0
	.cfi_startproc
	@ args = 0, pretend = 0, frame = 8
	@ frame_needed = 0, uses_anonymous_args = 0
.LVL589:
	stmfd	sp!, {r4, r5, r6, lr}
.LCFI125:
	.cfi_def_cfa_offset 16
	.cfi_offset 4, -16
	.cfi_offset 5, -12
	.cfi_offset 6, -8
	.cfi_offset 14, -4
	sub	sp, sp, #8
.LCFI126:
	.cfi_def_cfa_offset 24
	.loc 19 82 0
	mov	ip, sp
	stmia	sp, {r2, r3}
.LBB3406:
.LBB3407:
	.loc 25 777 0
	and	r3, r2, #14
	cmp	r3, #14
.LBE3407:
.LBE3406:
	.loc 19 82 0
	mov	r4, r0
	mov	r5, r2
.LVL590:
.LBB3410:
.LBB3408:
	.loc 25 777 0
	beq	.L825
	.loc 25 778 0
	and	r3, r2, #15
.LBE3408:
.LBE3410:
	.loc 19 83 0
	cmp	r3, #1
	beq	.L837
.L827:
	.loc 19 91 0
	cmp	r3, #3
	beq	.L838
	.loc 19 100 0
	ldmia	ip, {r0, r1}
.LVL591:
	stmia	r4, {r0, r1}
.LVL592:
.L824:
	.loc 19 102 0
	mov	r0, r4
	add	sp, sp, #8
	ldmfd	sp!, {r4, r5, r6, pc}
.LVL593:
.L825:
.LBB3411:
.LBB3409:
	.loc 25 779 0
	uxtb	r3, r2
.LBE3409:
.LBE3411:
	.loc 19 83 0
	cmp	r3, #1
	bne	.L827
.LBB3412:
.LBB3413:
.LBB3414:
	.loc 25 1292 0
	and	r3, r2, #15
	cmp	r3, #1
	ldr	r6, [sp, #4]
.LVL594:
	bne	.L839
.L828:
	.loc 25 1295 0
	and	r0, r6, #3145728
.LVL595:
.LBE3414:
.LBE3413:
	.loc 19 88 0
	mov	r0, r0, lsr #20
	bl	maskVMRights
.LVL596:
.LBB3415:
.LBB3416:
	.loc 25 1303 0
	bics	r3, r0, #3
	bne	.L840
.LVL597:
	.loc 25 1306 0
	mov	r0, r0, asl #20
.LVL598:
	and	r0, r0, #3145728
	.loc 25 1305 0
	bic	r6, r6, #3145728
.LVL599:
	.loc 25 1306 0
	orr	r6, r0, r6
.LVL600:
	.loc 25 1307 0
	stmia	r4, {r5, r6}
	b	.L824
.LVL601:
.L838:
.LBE3416:
.LBE3415:
.LBE3412:
.LBB3419:
.LBB3420:
.LBB3421:
	.loc 25 1420 0
	and	r3, r5, #15
	cmp	r3, #3
	ldr	r6, [sp, #4]
.LVL602:
	bne	.L841
	.loc 25 1423 0
	and	r0, r6, #786432
.LVL603:
.LBE3421:
.LBE3420:
	.loc 19 96 0
	mov	r0, r0, lsr #18
	bl	maskVMRights
.LVL604:
.LBB3422:
.LBB3423:
	.loc 25 1431 0
	bics	r3, r0, #3
	bne	.L842
.LVL605:
	.loc 25 1434 0
	mov	r0, r0, asl #18
.LVL606:
	and	r0, r0, #786432
	.loc 25 1433 0
	bic	r6, r6, #786432
.LVL607:
	.loc 25 1434 0
	orr	r6, r0, r6
.LVL608:
	.loc 25 1435 0
	stmia	r4, {r5, r6}
	b	.L824
.LVL609:
.L837:
	ldr	r6, [sp, #4]
.LVL610:
	b	.L828
.L839:
	bl	cap_small_frame_cap_get_capFVMRights.part.127
.LVL611:
.L842:
	.loc 25 1431 0
	ldr	r0, .L843
.LVL612:
	ldr	r1, .L843+4
	ldr	r2, .L843+8
	ldr	r3, .L843+12
	bl	_assert_fail
.LVL613:
.L841:
	bl	cap_frame_cap_get_capFVMRights.part.128
.LVL614:
.L840:
.LBE3423:
.LBE3422:
.LBE3419:
.LBB3424:
.LBB3418:
.LBB3417:
	.loc 25 1303 0
	ldr	r0, .L843+16
.LVL615:
	ldr	r1, .L843+4
	ldr	r2, .L843+20
	ldr	r3, .L843+24
	bl	_assert_fail
.LVL616:
.L844:
	.align	2
.L843:
	.word	.LC55
	.word	.LC5
	.word	1431
	.word	.LANCHOR3+2720
	.word	.LC54
	.word	1303
	.word	.LANCHOR3+2680
.LBE3417:
.LBE3418:
.LBE3424:
	.cfi_endproc
.LFE441:
	.size	Arch_maskCapRights, .-Arch_maskCapRights
	.section	.text.unlikely
	.align	2
	.type	pde_pde_coarse_get_address.part.142, %function
pde_pde_coarse_get_address.part.142:
.LFB803:
	.loc 25 645 0
	.cfi_startproc
	@ Volatile: function does not return.
	@ args = 0, pretend = 0, frame = 0
	@ frame_needed = 0, uses_anonymous_args = 0
	stmfd	sp!, {r3, lr}
.LCFI127:
	.cfi_def_cfa_offset 8
	.cfi_offset 3, -8
	.cfi_offset 14, -4
	.loc 25 646 0
	ldr	r0, .L846
	ldr	r1, .L846+4
	ldr	r2, .L846+8
	ldr	r3, .L846+12
	bl	_assert_fail
.LVL617:
.L847:
	.align	2
.L846:
	.word	.LC56
	.word	.LC5
	.word	647
	.word	.LANCHOR3+2752
	.cfi_endproc
.LFE803:
	.size	pde_pde_coarse_get_address.part.142, .-pde_pde_coarse_get_address.part.142
	.text
	.align	2
	.global	pageTableMapped
	.type	pageTableMapped, %function
pageTableMapped:
.LFB348:
	.loc 10 537 0
	.cfi_startproc
	@ args = 0, pretend = 0, frame = 8
	@ frame_needed = 0, uses_anonymous_args = 0
.LVL618:
	stmfd	sp!, {r4, r5, lr}
.LCFI128:
	.cfi_def_cfa_offset 12
	.cfi_offset 4, -12
	.cfi_offset 5, -8
	.cfi_offset 14, -4
	mov	r3, r0
	sub	sp, sp, #12
.LCFI129:
	.cfi_def_cfa_offset 24
	.loc 10 542 0
	mov	r0, sp
.LVL619:
	.loc 10 537 0
	mov	r4, r1
	.loc 10 542 0
	mov	r1, r3
.LVL620:
	.loc 10 537 0
	mov	r5, r2
	.loc 10 542 0
	bl	findPDForASID
.LVL621:
	.loc 10 543 0
	ldr	r3, [sp, #0]
	.loc 10 542 0
	ldr	r0, [sp, #4]
.LVL622:
	.loc 10 543 0
	cmp	r3, #0
	bne	.L851
.LVL623:
	.loc 10 547 0
	mov	r4, r4, lsr #20
.LVL624:
	.loc 10 548 0
	ldr	r3, [r0, r4, asl #2]
.LVL625:
.LBB3431:
.LBB3432:
	.loc 25 579 0
	and	r2, r3, #3
.LBE3432:
.LBE3431:
	.loc 10 550 0
	cmp	r2, #1
	bne	.L851
.LVL626:
.LBB3433:
.LBB3434:
	.loc 25 649 0 discriminator 1
	bic	r3, r3, #1020
.LVL627:
	bic	r3, r3, #3
.LBE3434:
.LBE3433:
.LBB3435:
.LBB3436:
	.loc 11 33 0 discriminator 1
	add	r3, r3, #1879048192
.LBE3436:
.LBE3435:
	.loc 10 550 0 discriminator 1
	cmp	r5, r3
	bne	.L851
.LVL628:
.L850:
	.loc 10 556 0
	add	sp, sp, #12
	ldmfd	sp!, {r4, r5, pc}
.LVL629:
.L851:
	.loc 10 544 0
	mov	r0, #0
.LVL630:
	b	.L850
	.cfi_endproc
.LFE348:
	.size	pageTableMapped, .-pageTableMapped
	.section	.text.unlikely
	.align	2
	.type	generic_frame_cap_get_capFMappedAddress.part.144, %function
generic_frame_cap_get_capFMappedAddress.part.144:
.LFB805:
	.loc 28 432 0
	.cfi_startproc
	@ Volatile: function does not return.
	@ args = 0, pretend = 0, frame = 0
	@ frame_needed = 0, uses_anonymous_args = 0
	stmfd	sp!, {r3, lr}
.LCFI130:
	.cfi_def_cfa_offset 8
	.cfi_offset 3, -8
	.cfi_offset 14, -4
	.loc 28 437 0
	ldr	r0, .L853
	ldr	r1, .L853+4
	ldr	r2, .L853+8
	ldr	r3, .L853+12
	bl	_assert_fail
.LVL631:
.L854:
	.align	2
.L853:
	.word	.LC27
	.word	.LC28
	.word	438
	.word	.LANCHOR3+2780
	.cfi_endproc
.LFE805:
	.size	generic_frame_cap_get_capFMappedAddress.part.144, .-generic_frame_cap_get_capFMappedAddress.part.144
	.align	2
	.type	pde_pde_section_ptr_get_address.part.146, %function
pde_pde_section_ptr_get_address.part.146:
.LFB807:
	.loc 25 718 0
	.cfi_startproc
	@ Volatile: function does not return.
	@ args = 0, pretend = 0, frame = 0
	@ frame_needed = 0, uses_anonymous_args = 0
	stmfd	sp!, {r3, lr}
.LCFI131:
	.cfi_def_cfa_offset 8
	.cfi_offset 3, -8
	.cfi_offset 14, -4
	.loc 25 719 0
	mov	r2, #720
	ldr	r0, .L856
	ldr	r1, .L856+4
	ldr	r3, .L856+8
	bl	_assert_fail
.LVL632:
.L857:
	.align	2
.L856:
	.word	.LC57
	.word	.LC5
	.word	.LANCHOR3+2820
	.cfi_endproc
.LFE807:
	.size	pde_pde_section_ptr_get_address.part.146, .-pde_pde_section_ptr_get_address.part.146
	.align	2
	.type	pde_pde_section_ptr_get_size.part.147, %function
pde_pde_section_ptr_get_size.part.147:
.LFB808:
	.loc 25 734 0
	.cfi_startproc
	@ Volatile: function does not return.
	@ args = 0, pretend = 0, frame = 0
	@ frame_needed = 0, uses_anonymous_args = 0
	stmfd	sp!, {r3, lr}
.LCFI132:
	.cfi_def_cfa_offset 8
	.cfi_offset 3, -8
	.cfi_offset 14, -4
	.loc 25 735 0
	mov	r2, #736
	ldr	r0, .L859
	ldr	r1, .L859+4
	ldr	r3, .L859+8
	bl	_assert_fail
.LVL633:
.L860:
	.align	2
.L859:
	.word	.LC57
	.word	.LC5
	.word	.LANCHOR3+2852
	.cfi_endproc
.LFE808:
	.size	pde_pde_section_ptr_get_size.part.147, .-pde_pde_section_ptr_get_size.part.147
	.align	2
	.type	pde_pde_coarse_ptr_get_address.part.148, %function
pde_pde_coarse_ptr_get_address.part.148:
.LFB809:
	.loc 25 653 0
	.cfi_startproc
	@ Volatile: function does not return.
	@ args = 0, pretend = 0, frame = 0
	@ frame_needed = 0, uses_anonymous_args = 0
	stmfd	sp!, {r3, lr}
.LCFI133:
	.cfi_def_cfa_offset 8
	.cfi_offset 3, -8
	.cfi_offset 14, -4
	.loc 25 654 0
	ldr	r0, .L862
	ldr	r1, .L862+4
	ldr	r2, .L862+8
	ldr	r3, .L862+12
	bl	_assert_fail
.LVL634:
.L863:
	.align	2
.L862:
	.word	.LC58
	.word	.LC5
	.word	655
	.word	.LANCHOR3+2884
	.cfi_endproc
.LFE809:
	.size	pde_pde_coarse_ptr_get_address.part.148, .-pde_pde_coarse_ptr_get_address.part.148
	.text
	.align	2
	.global	lookupPTSlot
	.type	lookupPTSlot, %function
lookupPTSlot:
.LFB340:
	.loc 10 400 0
	.cfi_startproc
	@ args = 0, pretend = 0, frame = 0
	@ frame_needed = 0, uses_anonymous_args = 0
	@ link register save eliminated.
.LVL635:
.LBB3457:
.LBB3458:
	.loc 10 440 0
	mov	r3, r2, lsr #20
.LVL636:
.LBE3458:
.LBE3457:
.LBB3459:
.LBB3460:
	.loc 25 584 0
	ldr	r3, [r1, r3, asl #2]
.LVL637:
	and	r1, r3, #3
.LVL638:
.LBE3460:
.LBE3459:
	.loc 10 406 0
	cmp	r1, #1
	bne	.L867
.LVL639:
.LBB3461:
.LBB3462:
.LBB3463:
	.loc 25 657 0
	bic	r3, r3, #1020
.LVL640:
	bic	r3, r3, #3
.LBE3463:
.LBE3462:
	.loc 10 417 0
	mov	r2, r2, lsr #10
.LVL641:
.LBB3464:
.LBB3465:
	.loc 11 33 0
	add	r3, r3, #1879048192
.LBE3465:
.LBE3464:
	.loc 10 418 0
	and	r2, r2, #1020
	add	r2, r3, r2
.LBE3461:
.LBB3466:
	.loc 10 422 0
	mov	r1, #0
	stmia	r0, {r1, r2}
.LBE3466:
	.loc 10 424 0
	bx	lr
.LVL642:
.L867:
	.loc 10 407 0
	ldr	r2, .L868
.LVL643:
	mov	r3, #0
.LBB3467:
	.loc 10 411 0
	mov	r1, #2
.LBE3467:
	.loc 10 407 0
	mov	ip, #81
	str	ip, [r2, #0]
	str	r3, [r2, #4]
.LVL644:
.LBB3468:
	.loc 10 411 0
	stmia	r0, {r1, r3}
	bx	lr
.L869:
	.align	2
.L868:
	.word	current_lookup_fault
.LBE3468:
	.cfi_endproc
.LFE340:
	.size	lookupPTSlot, .-lookupPTSlot
	.section	.text.unlikely
	.align	2
	.type	pte_pte_large_ptr_get_address.part.150, %function
pte_pte_large_ptr_get_address.part.150:
.LFB811:
	.loc 25 1900 0
	.cfi_startproc
	@ Volatile: function does not return.
	@ args = 0, pretend = 0, frame = 0
	@ frame_needed = 0, uses_anonymous_args = 0
	stmfd	sp!, {r3, lr}
.LCFI134:
	.cfi_def_cfa_offset 8
	.cfi_offset 3, -8
	.cfi_offset 14, -4
	.loc 25 1901 0
	ldr	r0, .L871
	ldr	r1, .L871+4
	ldr	r2, .L871+8
	ldr	r3, .L871+12
	bl	_assert_fail
.LVL645:
.L872:
	.align	2
.L871:
	.word	.LC59
	.word	.LC5
	.word	1902
	.word	.LANCHOR3+2916
	.cfi_endproc
.LFE811:
	.size	pte_pte_large_ptr_get_address.part.150, .-pte_pte_large_ptr_get_address.part.150
	.align	2
	.type	pte_pte_small_ptr_get_address.part.151, %function
pte_pte_small_ptr_get_address.part.151:
.LFB812:
	.loc 25 1980 0
	.cfi_startproc
	@ Volatile: function does not return.
	@ args = 0, pretend = 0, frame = 0
	@ frame_needed = 0, uses_anonymous_args = 0
	stmfd	sp!, {r3, lr}
.LCFI135:
	.cfi_def_cfa_offset 8
	.cfi_offset 3, -8
	.cfi_offset 14, -4
	.loc 25 1981 0
	ldr	r0, .L874
	ldr	r1, .L874+4
	ldr	r2, .L874+8
	ldr	r3, .L874+12
	bl	_assert_fail
.LVL646:
.L875:
	.align	2
.L874:
	.word	.LC60
	.word	.LC5
	.word	1982
	.word	.LANCHOR3+2948
	.cfi_endproc
.LFE812:
	.size	pte_pte_small_ptr_get_address.part.151, .-pte_pte_small_ptr_get_address.part.151
	.align	2
	.type	pde_pde_coarse_new.part.152, %function
pde_pde_coarse_new.part.152:
.LFB813:
	.loc 25 623 0
	.cfi_startproc
	@ Volatile: function does not return.
	@ args = 0, pretend = 0, frame = 0
	@ frame_needed = 0, uses_anonymous_args = 0
	stmfd	sp!, {r3, lr}
.LCFI136:
	.cfi_def_cfa_offset 8
	.cfi_offset 3, -8
	.cfi_offset 14, -4
	.loc 25 629 0
	ldr	r0, .L877
	ldr	r1, .L877+4
	ldr	r2, .L877+8
	ldr	r3, .L877+12
	bl	_assert_fail
.LVL647:
.L878:
	.align	2
.L877:
	.word	.LC61
	.word	.LC5
	.word	629
	.word	.LANCHOR3+2980
	.cfi_endproc
.LFE813:
	.size	pde_pde_coarse_new.part.152, .-pde_pde_coarse_new.part.152
	.align	2
	.type	pde_pde_section_new.part.155, %function
pde_pde_section_new.part.155:
.LFB816:
	.loc 25 661 0
	.cfi_startproc
	@ Volatile: function does not return.
	@ args = 0, pretend = 0, frame = 0
	@ frame_needed = 0, uses_anonymous_args = 0
	stmfd	sp!, {r3, lr}
.LCFI137:
	.cfi_def_cfa_offset 8
	.cfi_offset 3, -8
	.cfi_offset 14, -4
	.loc 25 667 0
	ldr	r0, .L880
	ldr	r1, .L880+4
	ldr	r2, .L880+8
	ldr	r3, .L880+12
	bl	_assert_fail
.LVL648:
.L881:
	.align	2
.L880:
	.word	.LC62
	.word	.LC5
	.word	667
	.word	.LANCHOR3+3000
	.cfi_endproc
.LFE816:
	.size	pde_pde_section_new.part.155, .-pde_pde_section_new.part.155
	.text
	.align	2
	.type	loadHWASID, %function
loadHWASID:
.LFB358:
	.loc 10 818 0
	.cfi_startproc
	@ args = 0, pretend = 0, frame = 0
	@ frame_needed = 0, uses_anonymous_args = 0
.LVL649:
	stmfd	sp!, {r3, lr}
.LCFI138:
	.cfi_def_cfa_offset 8
	.cfi_offset 3, -8
	.cfi_offset 14, -4
	.loc 10 822 0
	mov	r2, r0, lsr #10
	ldr	r3, .L887
	ldr	r3, [r3, r2, asl #2]
.LVL650:
	.loc 10 823 0
	cmp	r3, #0
	beq	.L885
	.loc 10 825 0
	mov	r0, r0, asl #22
.LVL651:
	ldr	r3, [r3, r0, lsr #20]
.LVL652:
	.loc 10 826 0
	cmp	r3, #0
	beq	.L886
	.loc 10 828 0
	mov	r2, #16320
.LVL653:
	.loc 10 829 0
	ldr	r0, [r3, r2]
	ldmfd	sp!, {r3, pc}
.LVL654:
.L885:
.LBB3471:
.LBB3472:
	.loc 10 823 0
	ldr	r0, .L887+4
.LVL655:
	ldr	r1, .L887+8
	ldr	r2, .L887+12
	ldr	r3, .L887+16
.LVL656:
	bl	_assert_fail
.LVL657:
.L886:
.LBE3472:
.LBE3471:
	.loc 10 826 0 discriminator 1
	ldr	r0, .L887+20
	ldr	r1, .L887+8
	ldr	r2, .L887+24
.LVL658:
	ldr	r3, .L887+16
.LVL659:
	bl	_assert_fail
.LVL660:
.L888:
	.align	2
.L887:
	.word	armKSASIDTable
	.word	.LC63
	.word	.LC64
	.word	823
	.word	.LANCHOR3+3020
	.word	.LC65
	.word	826
	.cfi_endproc
.LFE358:
	.size	loadHWASID, .-loadHWASID
	.section	.text.unlikely
	.align	2
	.type	pde_pde_invalid_get_stored_asid_valid.part.157, %function
pde_pde_invalid_get_stored_asid_valid.part.157:
.LFB818:
	.loc 25 615 0
	.cfi_startproc
	@ Volatile: function does not return.
	@ args = 0, pretend = 0, frame = 0
	@ frame_needed = 0, uses_anonymous_args = 0
	stmfd	sp!, {r3, lr}
.LCFI139:
	.cfi_def_cfa_offset 8
	.cfi_offset 3, -8
	.cfi_offset 14, -4
	.loc 25 616 0
	ldr	r0, .L890
	ldr	r1, .L890+4
	ldr	r2, .L890+8
	ldr	r3, .L890+12
	bl	_assert_fail
.LVL661:
.L891:
	.align	2
.L890:
	.word	.LC66
	.word	.LC5
	.word	617
	.word	.LANCHOR3+3032
	.cfi_endproc
.LFE818:
	.size	pde_pde_invalid_get_stored_asid_valid.part.157, .-pde_pde_invalid_get_stored_asid_valid.part.157
	.align	2
	.type	pde_pde_invalid_get_stored_hw_asid.part.158, %function
pde_pde_invalid_get_stored_hw_asid.part.158:
.LFB819:
	.loc 25 607 0
	.cfi_startproc
	@ Volatile: function does not return.
	@ args = 0, pretend = 0, frame = 0
	@ frame_needed = 0, uses_anonymous_args = 0
	stmfd	sp!, {r3, lr}
.LCFI140:
	.cfi_def_cfa_offset 8
	.cfi_offset 3, -8
	.cfi_offset 14, -4
	.loc 25 608 0
	ldr	r0, .L893
	ldr	r1, .L893+4
	ldr	r2, .L893+8
	ldr	r3, .L893+12
	bl	_assert_fail
.LVL662:
.L894:
	.align	2
.L893:
	.word	.LC66
	.word	.LC5
	.word	609
	.word	.LANCHOR3+3072
	.cfi_endproc
.LFE819:
	.size	pde_pde_invalid_get_stored_hw_asid.part.158, .-pde_pde_invalid_get_stored_hw_asid.part.158
	.text
	.align	2
	.global	flushSpace
	.type	flushSpace, %function
flushSpace:
.LFB364:
	.loc 10 938 0
	.cfi_startproc
	@ args = 0, pretend = 0, frame = 0
	@ frame_needed = 0, uses_anonymous_args = 0
.LVL663:
	stmfd	sp!, {r3, lr}
.LCFI141:
	.cfi_def_cfa_offset 8
	.cfi_offset 3, -8
	.cfi_offset 14, -4
	.loc 10 941 0
	bl	loadHWASID
.LVL664:
.LBB3498:
.LBB3499:
.LBB3500:
	.loc 5 18 0
	mov	r3, #0
#APP
@ 18 "/home/zj/seL4/myseL4/kernel/include/arch/arm/armv/armv6/armv/machine.h" 1
	mcr p15, 0, r3, c7, c10, 4
@ 0 "" 2
.LBE3500:
.LBE3499:
.LBB3501:
.LBB3502:
	.loc 3 18 0
#APP
@ 18 "/home/zj/seL4/myseL4/kernel/src/arch/arm/armv/armv6/cache.c" 1
	mcr p15, 0, r3, c7, c10, 0
@ 0 "" 2
.LBE3502:
.LBE3501:
.LBB3503:
.LBB3504:
	.loc 5 18 0
#APP
@ 18 "/home/zj/seL4/myseL4/kernel/include/arch/arm/armv/armv6/armv/machine.h" 1
	mcr p15, 0, r3, c7, c10, 4
@ 0 "" 2
.LBE3504:
.LBE3503:
.LBB3505:
.LBB3506:
	.loc 6 247 0
#APP
@ 247 "/home/zj/seL4/myseL4/kernel/include/arch/arm/arch/machine.h" 1
	mcr p15, 0, r3, c7, c5, 0
@ 0 "" 2
.LBB3507:
.LBB3508:
	.loc 5 32 0
#APP
@ 32 "/home/zj/seL4/myseL4/kernel/include/arch/arm/armv/armv6/armv/machine.h" 1
	mcr p15, 0, r3, c7, c5, 4
@ 0 "" 2
.LBE3508:
.LBE3507:
.LBE3506:
.LBE3505:
.LBB3509:
.LBB3510:
	.loc 5 18 0
#APP
@ 18 "/home/zj/seL4/myseL4/kernel/include/arch/arm/armv/armv6/armv/machine.h" 1
	mcr p15, 0, r3, c7, c10, 4
@ 0 "" 2
.LVL665:
.LBE3510:
.LBE3509:
.LBE3498:
.LBB3511:
.LBB3512:
	.loc 25 616 0
	ands	r3, r0, #3
	bne	.L902
.LBE3512:
.LBE3511:
	.loc 10 950 0
	tst	r0, #8388608
	ldmeqfd	sp!, {r3, pc}
.LVL666:
.LBB3513:
.LBB3514:
.LBB3515:
.LBB3516:
	.loc 5 18 0
#APP
@ 18 "/home/zj/seL4/myseL4/kernel/include/arch/arm/armv/armv6/armv/machine.h" 1
	mcr p15, 0, r3, c7, c10, 4
@ 0 "" 2
.LBE3516:
.LBE3515:
.LBE3514:
.LBE3513:
.LBB3522:
.LBB3523:
	.loc 25 611 0
	mov	r0, r0, lsr #24
.LVL667:
.LBE3523:
.LBE3522:
.LBB3524:
.LBB3521:
	.loc 6 159 0
#APP
@ 159 "/home/zj/seL4/myseL4/kernel/include/arch/arm/arch/machine.h" 1
	mcr p15, 0, r0, c8, c7, 2
@ 0 "" 2
.LBB3517:
.LBB3518:
	.loc 5 18 0
	mov	r3, #0
#APP
@ 18 "/home/zj/seL4/myseL4/kernel/include/arch/arm/armv/armv6/armv/machine.h" 1
	mcr p15, 0, r3, c7, c10, 4
@ 0 "" 2
.LBE3518:
.LBE3517:
.LBB3519:
.LBB3520:
	.loc 5 32 0
#APP
@ 32 "/home/zj/seL4/myseL4/kernel/include/arch/arm/armv/armv6/armv/machine.h" 1
	mcr p15, 0, r3, c7, c5, 4
@ 0 "" 2
	ldmfd	sp!, {r3, pc}
.LVL668:
.L902:
	bl	pde_pde_invalid_get_stored_asid_valid.part.157
.LVL669:
.LBE3520:
.LBE3519:
.LBE3521:
.LBE3524:
	.cfi_endproc
.LFE364:
	.size	flushSpace, .-flushSpace
	.section	.vectors.fastpath_call,"ax",%progbits
	.align	2
	.global	fastpath_call
	.type	fastpath_call, %function
fastpath_call:
.LFB310:
	.file 31 "/home/zj/seL4/myseL4/kernel/src/arch/arm/fastpath/fastpath.c"
	.loc 31 196 0
	.cfi_startproc
	@ Volatile: function does not return.
	@ args = 0, pretend = 0, frame = 32
	@ frame_needed = 0, uses_anonymous_args = 0
.LVL670:
	stmfd	sp!, {r7, fp, lr}
.LCFI142:
	.cfi_def_cfa_offset 12
	.cfi_offset 7, -12
	.cfi_offset 11, -8
	.cfi_offset 14, -4
.LBB3607:
.LBB3608:
	.loc 31 176 0
	mov	r3, r1, asl #23
.LBE3608:
.LBE3607:
	.loc 31 212 0
	ldr	fp, .L944
.LBB3611:
.LBB3609:
	.loc 31 176 0
	mov	r3, r3, lsr #23
.LBE3609:
.LBE3611:
	.loc 31 196 0
	sub	sp, sp, #36
.LCFI143:
	.cfi_def_cfa_offset 48
	.loc 31 212 0
	ldr	lr, [fp, #0]
.LBB3612:
.LBB3610:
	.loc 31 177 0
	add	r3, r3, #3
.LBE3610:
.LBE3612:
	.loc 31 196 0
	mov	sl, r0
.LBB3613:
.LBB3614:
	.loc 25 410 0
	ldr	ip, [lr, #84]
.LBE3614:
.LBE3613:
.LBB3616:
.LBB3617:
	.loc 27 70 0
	and	r2, r1, #127
.LBE3617:
.LBE3616:
	.loc 31 216 0
	bics	r0, r3, #7
.LVL671:
	.loc 31 196 0
	mov	r5, r1
.LVL672:
.LBB3619:
.LBB3615:
	.loc 25 410 0
	and	ip, ip, #7
.LBE3615:
.LBE3619:
.LBB3620:
.LBB3618:
	.loc 27 70 0
	str	r2, [sp, #4]
.LVL673:
.LBE3618:
.LBE3620:
	.loc 31 216 0
	bne	.L905
	.loc 31 216 0 is_stmt 0 discriminator 1
	cmp	ip, #0
	bne	.L905
	.loc 31 222 0 is_stmt 1
	bic	r6, lr, #508
	bic	r6, r6, #3
	add	r2, sp, #24
	ldmia	r6, {r0, r1}
.LVL674:
	mov	r3, lr
.LBB3621:
.LBB3622:
.LBB3623:
.LBB3624:
	.loc 25 785 0
	and	r7, r0, #15
.LBE3624:
.LBE3623:
	.loc 31 42 0
	cmp	r7, #10
	mov	r4, r0
.LVL675:
	stmia	r2, {r0, r1}
	ldreq	r0, [sp, #28]
.LVL676:
	moveq	r7, r0
	bne	.L905
.LVL677:
.L924:
.LBB3625:
.LBB3626:
	.loc 25 1165 0
	and	r1, r7, #260046848
.LBE3626:
.LBE3625:
.LBB3627:
.LBB3628:
	.loc 25 1185 0
	and	r8, r7, #8126464
.LBE3628:
.LBE3627:
	.loc 31 57 0
	movs	r1, r1, lsr #23
.LBB3630:
.LBB3631:
	.loc 25 1193 0
	bic	r7, r7, #-16777216
.LVL678:
.LBE3631:
.LBE3630:
.LBB3633:
.LBB3629:
	.loc 25 1185 0
	mov	r8, r8, lsr #18
.LBE3629:
.LBE3633:
.LBB3634:
.LBB3632:
	.loc 25 1193 0
	bic	r7, r7, #16515072
.LBE3632:
.LBE3634:
	.loc 31 49 0
	mov	r9, sl, asl ip
.LVL679:
	.loc 31 57 0
	beq	.L910
	rsb	r0, r1, #32
	cmp	r7, r9, lsr r0
	bne	.L905
.L910:
.LVL680:
	.loc 31 61 0
	mov	r9, r9, asl r1
.LVL681:
	rsb	r0, r8, #32
.LBB3635:
.LBB3636:
	.loc 25 1213 0
	bic	r4, r4, #31
.LVL682:
.LBE3636:
.LBE3635:
	.loc 31 61 0
	mov	r0, r9, lsr r0
.LVL683:
	.loc 31 65 0
	add	r1, r8, r1
	.loc 31 62 0
	add	r0, r4, r0, asl #4
.LVL684:
	.loc 31 65 0
	add	ip, ip, r1
.LVL685:
	.loc 31 64 0
	ldmia	r0, {r0, r1}
.LVL686:
	.loc 31 67 0
	cmp	ip, #31
	.loc 31 64 0
	stmia	r2, {r0, r1}
	mov	r4, r0
.LVL687:
	.loc 31 67 0
	bls	.L941
	.loc 31 69 0
	cmp	ip, #32
	bne	.L905
	and	r7, r0, #15
.L914:
	.loc 31 75 0
	str	r4, [sp, #24]
	ldmia	r2, {r0, r1}
	add	r2, sp, #16
.LBE3622:
.LBE3621:
	.loc 31 225 0
	cmp	r7, #4
.LBB3641:
.LBB3639:
	.loc 31 75 0
	stmia	r2, {r0, r1}
.LVL688:
.LBE3639:
.LBE3641:
	.loc 31 225 0
	bne	.L905
.LVL689:
	ldr	r1, [sp, #20]
.LVL690:
	.loc 31 225 0 is_stmt 0 discriminator 1
	tst	r1, #1
	beq	.L905
.LVL691:
.LBB3642:
.LBB3643:
	.loc 25 905 0 is_stmt 1
	bic	r0, r1, #15
.LVL692:
.LBE3643:
.LBE3642:
.LBB3644:
.LBB3645:
	.loc 25 90 0
	ldmia	r0, {r2, r7}
.LBE3645:
.LBE3644:
.LBB3647:
.LBB3648:
	.loc 25 116 0
	and	r2, r2, #3
.LBE3648:
.LBE3647:
	.loc 31 238 0
	cmp	r2, #2
.LBB3649:
.LBB3646:
	.loc 25 90 0
	bic	ip, r7, #15
.LVL693:
.LBE3646:
.LBE3649:
	.loc 31 235 0
	mov	r2, ip
.LVL694:
	.loc 31 238 0
	bne	.L905
	.loc 31 243 0
	bic	r7, r7, #508
	bic	r7, r7, #3
	ldr	r8, [r7, #16]
.LVL695:
.LBB3650:
.LBB3651:
	.loc 25 1675 0
	and	sl, r8, #15
.LVL696:
	cmp	sl, #9
	bne	.L942
.LBE3651:
.LBE3650:
.LBB3653:
.LBB3654:
	.loc 31 163 0
	and	sl, r8, #31
.LBE3654:
.LBE3653:
	.loc 31 249 0
	cmp	sl, #25
.LBB3655:
.LBB3652:
	.loc 25 1678 0
	bic	r8, r8, #16320
.LVL697:
	bic	r8, r8, #63
.LVL698:
.LBE3652:
.LBE3655:
	.loc 31 249 0
	bne	.L905
	.loc 31 257 0
	ldr	r9, [ip, #104]
	ldr	sl, [lr, #104]
	cmp	r9, sl
	.loc 31 254 0
	mov	r9, #16320
	ldr	sl, [r8, r9]
.LVL699:
	.loc 31 257 0
	bcc	.L905
.LVL700:
	.loc 31 262 0
	tst	r1, #4
	beq	.L905
.LVL701:
.LBB3656:
.LBB3657:
	.loc 25 232 0 discriminator 1
	ldr	r1, [ip, #80]
.LVL702:
.LBE3657:
.LBE3656:
	.loc 31 262 0 discriminator 1
	tst	r1, #1
	bne	.L905
.LVL703:
.LBB3658:
.LBB3659:
	.loc 25 616 0
	tst	sl, #3
	bne	.L943
.LBE3659:
.LBE3658:
	.loc 31 267 0
	tst	sl, #8388608
	beq	.L905
	.loc 31 283 0
	ldr	r1, [ip, #128]
.LVL704:
.LBB3660:
.LBB3661:
	.loc 31 187 0
	ldr	r9, [sp, #4]
.LBE3661:
.LBE3660:
	.loc 31 284 0
	cmp	r1, #0
.LBB3668:
.LBB3669:
	.loc 31 157 0
	str	r1, [r0, #4]
.LBE3669:
.LBE3668:
	.loc 31 285 0
	movne	r0, #0
.LVL705:
	strne	r0, [r1, #132]
.LVL706:
.LBB3670:
.LBB3671:
	.loc 31 151 0
	streq	r1, [r0, #0]
.LVL707:
.LBE3671:
.LBE3670:
.LBB3672:
.LBB3666:
	.loc 31 187 0
	cmp	r9, #0
.LBE3666:
.LBE3672:
.LBB3673:
.LBB3674:
	.loc 31 108 0
	mov	r9, #5
	str	r9, [lr, #72]
.LBE3674:
.LBE3673:
.LBB3675:
.LBB3676:
.LBB3677:
.LBB3678:
	.loc 31 195 0
	ldrne	r9, [sp, #4]
.LBE3678:
.LBE3677:
.LBE3676:
.LBE3675:
	.loc 31 297 0
	add	r6, r6, #32
.LVL708:
	.loc 31 300 0
	add	r1, r7, #48
.LVL709:
.LBB3699:
.LBB3700:
	.loc 25 973 0
	mov	r0, r4, lsr #4
.LVL710:
.LBE3700:
.LBE3699:
.LBB3701:
.LBB3702:
	.loc 31 143 0
	orr	r4, lr, #8
.LVL711:
	str	r4, [r7, #48]
.LVL712:
.LBE3702:
.LBE3701:
.LBB3703:
.LBB3704:
	.loc 31 130 0
	orr	r4, r1, #3
.LBE3704:
.LBE3703:
.LBB3706:
.LBB3707:
	.loc 31 136 0
	str	r6, [r7, #56]
.LVL713:
.LBE3707:
.LBE3706:
.LBB3708:
.LBB3697:
.LBB3682:
.LBB3679:
	.loc 31 195 0
	addne	lr, lr, r9, asl #2
.LBE3679:
.LBE3682:
.LBE3697:
.LBE3708:
.LBB3709:
.LBB3705:
	.loc 31 130 0
	str	r4, [r6, #12]
.LVL714:
.LBE3705:
.LBE3709:
.LBB3710:
.LBB3667:
	.loc 31 187 0
	beq	.L923
.LVL715:
.L922:
.LBB3662:
.LBB3663:
	.loc 9 27 0
	ldr	r1, [r3, #8]
.LVL716:
	add	r3, r3, #4
.LBE3663:
.LBE3662:
	.loc 31 187 0
	cmp	r3, lr
.LBB3664:
.LBB3665:
	.loc 9 21 0
	str	r1, [ip, #8]
	add	ip, ip, #4
.LBE3665:
.LBE3664:
	.loc 31 187 0
	bne	.L922
.LVL717:
.L923:
.LBE3667:
.LBE3710:
.LBB3711:
.LBB3712:
	.loc 31 108 0
	mov	r3, #1
	str	r3, [r2, #72]
.LVL718:
.LBE3712:
.LBE3711:
.LBB3713:
.LBB3698:
.LBB3683:
.LBB3680:
	.loc 25 608 0
	mov	r3, #0
.LBE3680:
.LBE3683:
.LBB3684:
.LBB3685:
.LBB3686:
	.file 32 "/home/zj/seL4/myseL4/kernel/include/arch/arm/armv/armv6/armv/fastpath.h"
	.loc 32 27 0
#APP
@ 27 "/home/zj/seL4/myseL4/kernel/include/arch/arm/armv/armv6/armv/fastpath.h" 1
	mcr p15, 0, r3, c7, c10, 4
	
@ 0 "" 2
.LVL719:
.LBE3686:
.LBE3685:
.LBB3687:
.LBB3688:
	.loc 11 39 0
	add	r8, r8, #-1879048192
.LVL720:
.LBE3688:
.LBE3687:
.LBB3689:
.LBB3690:
	.loc 32 43 0
	orr	r8, r8, #24
.LVL721:
	.loc 32 40 0
#APP
@ 40 "/home/zj/seL4/myseL4/kernel/include/arch/arm/armv/armv6/armv/fastpath.h" 1
	mcr p15, 0, r8, c2, c0, 0
	
@ 0 "" 2
.LVL722:
.LBE3690:
.LBE3689:
.LBE3684:
.LBB3693:
.LBB3681:
	.loc 25 611 0
	mov	sl, sl, lsr #24
.LVL723:
.LBE3681:
.LBE3693:
.LBB3694:
.LBB3691:
.LBB3692:
	.loc 32 52 0
#APP
@ 52 "/home/zj/seL4/myseL4/kernel/include/arch/arm/armv/armv6/armv/fastpath.h" 1
	mcr p15, 0, sl, c13, c0, 1
	mcr p15, 0, r3, c7, c5, 6
	
@ 0 "" 2
.LBE3692:
.LBE3691:
.LBE3694:
	.loc 31 100 0
	ldr	r3, .L944+4
	ldr	r1, [r2, #116]
	.loc 31 101 0
	str	r2, [fp, #0]
.LVL724:
	.loc 31 100 0
	str	r1, [r3, #0]
.LBB3695:
.LBB3696:
	.loc 31 87 0
	add	r1, sp, #12
	.loc 31 84 0
	mov	r3, #0
#APP
@ 84 "/home/zj/seL4/myseL4/kernel/src/arch/arm/fastpath/fastpath.c" 1
	strex r3, r1, [r1]
@ 0 "" 2
.LVL725:
.LBE3696:
.LBE3695:
.LBE3698:
.LBE3713:
	.loc 31 316 0
	bic	r1, r5, #3584
.LVL726:
	bl	fastpath_restore
.LVL727:
.L905:
	.loc 31 218 0
	mvn	r0, #0
	bl	slowpath
.LVL728:
.L943:
	bl	pde_pde_invalid_get_stored_asid_valid.part.157
.LVL729:
.L942:
	bl	cap_page_directory_cap_get_capPDBasePtr.isra.72.part.73
.LVL730:
.L941:
.LBB3714:
.LBB3640:
.LBB3637:
.LBB3638:
	.loc 25 785 0
	and	r7, r0, #15
.LBE3638:
.LBE3637:
	.loc 31 67 0
	cmp	r7, #10
	bne	.L914
.LVL731:
	ldr	r7, [sp, #28]
.LVL732:
	b	.L924
.L945:
	.align	2
.L944:
	.word	ksCurThread
	.word	.LANCHOR0
.LBE3640:
.LBE3714:
	.cfi_endproc
.LFE310:
	.size	fastpath_call, .-fastpath_call
	.text
	.align	2
	.global	invalidateTLBByASID
	.type	invalidateTLBByASID, %function
invalidateTLBByASID:
.LFB365:
	.loc 10 960 0
	.cfi_startproc
	@ args = 0, pretend = 0, frame = 0
	@ frame_needed = 0, uses_anonymous_args = 0
.LVL733:
	stmfd	sp!, {r3, lr}
.LCFI144:
	.cfi_def_cfa_offset 8
	.cfi_offset 3, -8
	.cfi_offset 14, -4
	.loc 10 963 0
	bl	loadHWASID
.LVL734:
.LBB3727:
.LBB3728:
	.loc 25 616 0
	ands	r3, r0, #3
	bne	.L953
.LBE3728:
.LBE3727:
	.loc 10 967 0
	tst	r0, #8388608
	ldmeqfd	sp!, {r3, pc}
.LVL735:
.LBB3729:
.LBB3730:
.LBB3731:
.LBB3732:
	.loc 5 18 0
#APP
@ 18 "/home/zj/seL4/myseL4/kernel/include/arch/arm/armv/armv6/armv/machine.h" 1
	mcr p15, 0, r3, c7, c10, 4
@ 0 "" 2
.LBE3732:
.LBE3731:
.LBE3730:
.LBE3729:
.LBB3738:
.LBB3739:
	.loc 25 611 0
	mov	r0, r0, lsr #24
.LVL736:
.LBE3739:
.LBE3738:
.LBB3740:
.LBB3737:
	.loc 6 159 0
#APP
@ 159 "/home/zj/seL4/myseL4/kernel/include/arch/arm/arch/machine.h" 1
	mcr p15, 0, r0, c8, c7, 2
@ 0 "" 2
.LBB3733:
.LBB3734:
	.loc 5 18 0
	mov	r3, #0
#APP
@ 18 "/home/zj/seL4/myseL4/kernel/include/arch/arm/armv/armv6/armv/machine.h" 1
	mcr p15, 0, r3, c7, c10, 4
@ 0 "" 2
.LBE3734:
.LBE3733:
.LBB3735:
.LBB3736:
	.loc 5 32 0
#APP
@ 32 "/home/zj/seL4/myseL4/kernel/include/arch/arm/armv/armv6/armv/machine.h" 1
	mcr p15, 0, r3, c7, c5, 4
@ 0 "" 2
	ldmfd	sp!, {r3, pc}
.LVL737:
.L953:
	bl	pde_pde_invalid_get_stored_asid_valid.part.157
.LVL738:
.LBE3736:
.LBE3735:
.LBE3737:
.LBE3740:
	.cfi_endproc
.LFE365:
	.size	invalidateTLBByASID, .-invalidateTLBByASID
	.align	2
	.global	performPageInvocationRemapPDE
	.type	performPageInvocationRemapPDE, %function
performPageInvocationRemapPDE:
.LFB385:
	.loc 10 2152 0
	.cfi_startproc
	@ args = 0, pretend = 0, frame = 8
	@ frame_needed = 0, uses_anonymous_args = 0
.LVL739:
	stmfd	sp!, {r4, r5, lr}
.LCFI145:
	.cfi_def_cfa_offset 12
	.cfi_offset 4, -12
	.cfi_offset 5, -8
	.cfi_offset 14, -4
	sub	sp, sp, #12
.LCFI146:
	.cfi_def_cfa_offset 24
	.loc 10 2152 0
	add	ip, sp, #8
	stmdb	ip, {r2, r3}
	ldmia	sp, {r3, r4}
.LVL740:
.LBB3741:
.LBB3742:
.LBB3743:
	.loc 25 584 0
	ldr	r2, [r3, #0]
.LBE3743:
.LBE3742:
.LBE3741:
	.loc 10 2160 0
	cmp	r4, #0
.LBB3746:
.LBB3745:
.LBB3744:
	.loc 25 584 0
	and	r5, r2, #3
.LVL741:
.LBE3744:
.LBE3745:
.LBE3746:
.LBB3747:
.LBB3748:
	.loc 10 2151 0
	addne	ip, r3, r4, asl #2
	movne	r2, r3
.LBE3748:
.LBE3747:
	.loc 10 2160 0
	beq	.L959
.LVL742:
.L958:
	.loc 10 2161 0 discriminator 2
	str	r1, [r2], #4
	.loc 10 2160 0 discriminator 2
	cmp	r2, ip
	bne	.L958
.L959:
.LVL743:
	.loc 10 2164 0
	add	r1, r3, r4, asl #2
.LVL744:
	.loc 10 2163 0
	sub	r1, r1, #1
.LBB3758:
.LBB3757:
	.loc 12 77 0
	mov	r3, r3, lsr #5
.LVL745:
	mov	r1, r1, lsr #5
	add	r1, r1, #1
	cmp	r1, r3
.LBB3749:
.LBB3750:
.LBB3751:
.LBB3752:
	.loc 5 25 0
	movhi	ip, #0
.LBE3752:
.LBE3751:
.LBE3750:
.LBE3749:
	.loc 12 77 0
	bls	.L957
.L962:
.LVL746:
	.loc 12 78 0
	mov	r2, r3, asl #5
.LBB3756:
.LBB3755:
	.loc 6 201 0
#APP
@ 201 "/home/zj/seL4/myseL4/kernel/include/arch/arm/arch/machine.h" 1
	mcr p15, 0, r2, c7, c10, 1
@ 0 "" 2
.LBB3754:
.LBB3753:
	.loc 5 25 0
#APP
@ 25 "/home/zj/seL4/myseL4/kernel/include/arch/arm/armv/armv6/armv/machine.h" 1
	mcr p15, 0, ip, c7, c10, 5
@ 0 "" 2
.LBE3753:
.LBE3754:
.LBE3755:
.LBE3756:
	.loc 12 77 0
	add	r3, r3, #1
	cmp	r1, r3
	bne	.L962
.LVL747:
.L957:
.LBE3757:
.LBE3758:
	.loc 10 2166 0
	cmp	r5, #0
	bne	.L965
.LVL748:
.L961:
	.loc 10 2171 0
	mov	r0, #0
	add	sp, sp, #12
	ldmfd	sp!, {r4, r5, pc}
.LVL749:
.L965:
	.loc 10 2167 0
	bl	invalidateTLBByASID
.LVL750:
	b	.L961
	.cfi_endproc
.LFE385:
	.size	performPageInvocationRemapPDE, .-performPageInvocationRemapPDE
	.align	2
	.global	performPageInvocationMapPDE
	.type	performPageInvocationMapPDE, %function
performPageInvocationMapPDE:
.LFB383:
	.loc 10 2104 0
	.cfi_startproc
	@ args = 12, pretend = 0, frame = 8
	@ frame_needed = 0, uses_anonymous_args = 0
.LVL751:
	stmfd	sp!, {r4, r5, r6, lr}
.LCFI147:
	.cfi_def_cfa_offset 16
	.cfi_offset 4, -16
	.cfi_offset 5, -12
	.cfi_offset 6, -8
	.cfi_offset 14, -4
	sub	sp, sp, #8
.LCFI148:
	.cfi_def_cfa_offset 24
	.loc 10 2104 0
	mov	r5, r0
	ldr	r4, [sp, #28]
.LVL752:
	stmia	sp, {r1, r2}
	ldr	r6, [sp, #32]
.LVL753:
	.loc 10 2108 0
	ldmia	sp, {r0, r1}
.LVL754:
.LBB3759:
.LBB3760:
.LBB3761:
	.loc 25 584 0
	ldr	r1, [r4, #0]
.LBE3761:
.LBE3760:
.LBE3759:
	.loc 10 2114 0
	cmp	r6, #0
	.loc 10 2108 0
	stmia	r3, {r0, r2}
.LVL755:
	.loc 10 2104 0
	mov	ip, sp
.LBB3764:
.LBB3763:
.LBB3762:
	.loc 25 584 0
	and	r0, r1, #3
.LVL756:
	movne	r2, r4
.LBE3762:
.LBE3763:
.LBE3764:
	.loc 10 2104 0
	ldr	r1, [sp, #24]
.LBB3765:
.LBB3766:
	.loc 10 2102 0
	addne	ip, r4, r6, asl #2
.LBE3766:
.LBE3765:
	.loc 10 2114 0
	beq	.L971
.LVL757:
.L970:
	.loc 10 2115 0 discriminator 2
	str	r1, [r2], #4
	.loc 10 2114 0 discriminator 2
	cmp	r2, ip
	bne	.L970
.L971:
.LVL758:
	.loc 10 2118 0
	add	r1, r4, r6, asl #2
	.loc 10 2117 0
	sub	r1, r1, #1
.LBB3776:
.LBB3775:
	.loc 12 77 0
	mov	r3, r4, lsr #5
.LVL759:
	mov	r1, r1, lsr #5
	add	r1, r1, #1
	cmp	r1, r3
.LBB3767:
.LBB3768:
.LBB3769:
.LBB3770:
	.loc 5 25 0
	movhi	ip, #0
.LBE3770:
.LBE3769:
.LBE3768:
.LBE3767:
	.loc 12 77 0
	bls	.L969
.L974:
.LVL760:
	.loc 12 78 0
	mov	r2, r3, asl #5
.LBB3774:
.LBB3773:
	.loc 6 201 0
#APP
@ 201 "/home/zj/seL4/myseL4/kernel/include/arch/arm/arch/machine.h" 1
	mcr p15, 0, r2, c7, c10, 1
@ 0 "" 2
.LBB3772:
.LBB3771:
	.loc 5 25 0
#APP
@ 25 "/home/zj/seL4/myseL4/kernel/include/arch/arm/armv/armv6/armv/machine.h" 1
	mcr p15, 0, ip, c7, c10, 5
@ 0 "" 2
.LBE3771:
.LBE3772:
.LBE3773:
.LBE3774:
	.loc 12 77 0
	add	r3, r3, #1
	cmp	r1, r3
	bne	.L974
.LVL761:
.L969:
.LBE3775:
.LBE3776:
	.loc 10 2120 0
	cmp	r0, #0
	bne	.L977
.LVL762:
.L973:
	.loc 10 2125 0
	mov	r0, #0
	add	sp, sp, #8
	ldmfd	sp!, {r4, r5, r6, pc}
.LVL763:
.L977:
	.loc 10 2121 0
	mov	r0, r5
	bl	invalidateTLBByASID
.LVL764:
	b	.L973
	.cfi_endproc
.LFE383:
	.size	performPageInvocationMapPDE, .-performPageInvocationMapPDE
	.section	.text.unlikely
	.align	2
	.type	pde_pde_invalid_new.part.159, %function
pde_pde_invalid_new.part.159:
.LFB820:
	.loc 25 588 0
	.cfi_startproc
	@ Volatile: function does not return.
	@ args = 0, pretend = 0, frame = 0
	@ frame_needed = 0, uses_anonymous_args = 0
	stmfd	sp!, {r3, lr}
.LCFI149:
	.cfi_def_cfa_offset 8
	.cfi_offset 3, -8
	.cfi_offset 14, -4
	.loc 25 594 0
	ldr	r0, .L979
	ldr	r1, .L979+4
	ldr	r2, .L979+8
	ldr	r3, .L979+12
	bl	_assert_fail
.LVL765:
.L980:
	.align	2
.L979:
	.word	.LC67
	.word	.LC5
	.word	594
	.word	.LANCHOR3+3108
	.cfi_endproc
.LFE820:
	.size	pde_pde_invalid_new.part.159, .-pde_pde_invalid_new.part.159
	.align	2
	.type	fault_vm_fault_new.part.163, %function
fault_vm_fault_new.part.163:
.LFB824:
	.loc 25 463 0
	.cfi_startproc
	@ Volatile: function does not return.
	@ args = 0, pretend = 0, frame = 0
	@ frame_needed = 0, uses_anonymous_args = 0
	stmfd	sp!, {r3, lr}
.LCFI150:
	.cfi_def_cfa_offset 8
	.cfi_offset 3, -8
	.cfi_offset 14, -4
	.loc 25 471 0
	ldr	r0, .L982
	ldr	r1, .L982+4
	ldr	r2, .L982+8
	ldr	r3, .L982+12
	bl	_assert_fail
.LVL766:
.L983:
	.align	2
.L982:
	.word	.LC68
	.word	.LC5
	.word	471
	.word	.LANCHOR3+3128
	.cfi_endproc
.LFE824:
	.size	fault_vm_fault_new.part.163, .-fault_vm_fault_new.part.163
	.section	.boot.text
	.align	2
	.type	insert_region_excluded, %function
insert_region_excluded:
.LFB313:
	.file 33 "/home/zj/seL4/myseL4/kernel/src/arch/arm/kernel/boot.c"
	.loc 33 38 0
	.cfi_startproc
	@ args = 12, pretend = 8, frame = 8
	@ frame_needed = 0, uses_anonymous_args = 0
.LVL767:
	sub	sp, sp, #8
.LCFI151:
	.cfi_def_cfa_offset 8
	.loc 33 42 0
	cmp	r3, r1
	.loc 33 38 0
	stmfd	sp!, {r4, r5, r6, r7, lr}
.LCFI152:
	.cfi_def_cfa_offset 28
	.cfi_offset 4, -28
	.cfi_offset 5, -24
	.cfi_offset 6, -20
	.cfi_offset 7, -16
	.cfi_offset 14, -12
	sub	sp, sp, #12
.LCFI153:
	.cfi_def_cfa_offset 40
	mov	r7, r3
	.loc 33 38 0
	stmia	sp, {r1, r2}
.LVL768:
	mov	r4, r0
	str	r3, [sp, #36]
.LVL769:
	ldr	r5, [sp, #40]
.LVL770:
	.loc 33 42 0
	bcs	.L985
.LVL771:
	cmp	r5, r1
	movcc	r5, r1
.LVL772:
	mov	r6, r2
.LVL773:
.L986:
.LBB3779:
.LBB3780:
	.loc 33 69 0
	cmp	r6, r5
	strls	r6, [r4, #0]
	strhi	r5, [r4, #0]
.LVL774:
	str	r6, [r4, #4]
.LBE3780:
.LBE3779:
	.loc 33 70 0
	mov	r0, r4
	add	sp, sp, #12
	ldmfd	sp!, {r4, r5, r6, r7, lr}
	add	sp, sp, #8
	bx	lr
.LVL775:
.L985:
	.loc 33 50 0
	cmp	r3, r2
	movcc	r6, r2
	.loc 33 57 0
	movcs	r6, #0
	.loc 33 50 0
	movcc	r2, r3
.LVL776:
	.loc 33 56 0
	movcs	r5, r6
.LVL777:
	.loc 33 60 0
	cmp	r2, r1
	bls	.L986
.LVL778:
	.loc 33 61 0
	str	r2, [sp, #4]
	ldmia	sp, {r0, r1}
.LVL779:
	bl	insert_region
.LVL780:
	.loc 33 62 0
	cmp	r0, #0
	bne	.L986
.LBB3782:
.LBB3781:
	ldr	r0, .L989
.LVL781:
	ldr	r1, .L989+4
	mov	r2, #62
	ldr	r3, .L989+8
	bl	_assert_fail
.LVL782:
.L990:
	.align	2
.L989:
	.word	.LC69
	.word	.LC70
	.word	.LANCHOR3+3148
.LBE3781:
.LBE3782:
	.cfi_endproc
.LFE313:
	.size	insert_region_excluded, .-insert_region_excluded
	.text
	.align	2
	.type	pte_pte_small_new.constprop.192, %function
pte_pte_small_new.constprop.192:
.LFB860:
	.loc 25 1932 0
	.cfi_startproc
	@ args = 16, pretend = 0, frame = 0
	@ frame_needed = 0, uses_anonymous_args = 0
.LVL783:
	stmfd	sp!, {r3, r4, r5, r6, r7, lr}
.LCFI154:
	.cfi_def_cfa_offset 24
	.cfi_offset 3, -24
	.cfi_offset 4, -20
	.cfi_offset 5, -16
	.cfi_offset 6, -12
	.cfi_offset 7, -8
	.cfi_offset 14, -4
	.loc 25 1932 0
	add	r4, sp, #28
	.loc 25 1938 0
	movs	r7, r0, asl #20
	.loc 25 1932 0
	ldr	ip, [sp, #24]
	ldmia	r4, {r4, r5, r6}
	.loc 25 1938 0
	bne	.L1000
	.loc 25 1939 0
	bic	r0, r0, #4080
.LVL784:
	.loc 25 1941 0
	bics	r7, r1, #1
	.loc 25 1939 0
	bic	r0, r0, #15
.LVL785:
	.loc 25 1941 0
	bne	.L1001
	.loc 25 1942 0
	and	r1, r1, #1
.LVL786:
	.loc 25 1944 0
	bics	r7, r2, #1
	.loc 25 1942 0
	mov	r1, r1, asl #11
.LVL787:
	.loc 25 1944 0
	bne	.L1002
	.loc 25 1945 0
	and	r2, r2, #1
.LVL788:
	.loc 25 1950 0
	bics	r7, r3, #7
	.loc 25 1945 0
	mov	r2, r2, asl #10
.LVL789:
	.loc 25 1950 0
	bne	.L1003
	.loc 25 1951 0
	and	r3, r3, #7
.LVL790:
	.loc 25 1953 0
	bics	r7, ip, #3
	.loc 25 1951 0
	mov	r3, r3, asl #6
.LVL791:
	.loc 25 1953 0
	bne	.L1004
	.loc 25 1954 0
	and	ip, ip, #3
	.loc 25 1956 0
	bics	r7, r4, #1
	.loc 25 1954 0
	mov	ip, ip, asl #4
.LVL792:
	.loc 25 1956 0
	bne	.L1005
	.loc 25 1957 0
	and	r4, r4, #1
	.loc 25 1959 0
	bics	r7, r5, #1
	.loc 25 1957 0
	mov	r4, r4, asl #3
.LVL793:
	.loc 25 1959 0
	bne	.L1006
.LVL794:
	.loc 25 1942 0
	orr	r0, r0, #2
.LVL795:
	.loc 25 1945 0
	orr	r1, r0, r1
.LVL796:
	.loc 25 1951 0
	orr	r2, r1, r2
.LVL797:
	.loc 25 1954 0
	orr	r3, r2, r3
.LVL798:
	.loc 25 1957 0
	orr	ip, r3, ip
.LVL799:
	.loc 25 1960 0
	and	r5, r5, #1
.LVL800:
	orr	r4, ip, r4
.LVL801:
	.loc 25 1965 0
	bics	ip, r6, #1
	.loc 25 1963 0
	orr	r0, r4, r5, asl #2
.LVL802:
	.loc 25 1965 0
	bne	.L1007
.LVL803:
	.loc 25 1966 0
	and	r6, r6, #1
.LVL804:
	.loc 25 1969 0
	orr	r0, r0, r6
.LVL805:
	ldmfd	sp!, {r3, r4, r5, r6, r7, pc}
.LVL806:
.L1000:
.LBB3785:
.LBB3786:
	.loc 25 1938 0
	ldr	r0, .L1008
.LVL807:
	ldr	r1, .L1008+4
.LVL808:
	ldr	r2, .L1008+8
.LVL809:
	ldr	r3, .L1008+12
.LVL810:
	bl	_assert_fail
.LVL811:
.L1007:
.LBE3786:
.LBE3785:
	.loc 25 1965 0
	ldr	r0, .L1008+16
.LVL812:
	ldr	r1, .L1008+4
	ldr	r2, .L1008+20
	ldr	r3, .L1008+12
	bl	_assert_fail
.LVL813:
.L1006:
	.loc 25 1959 0
	ldr	r0, .L1008+24
.LVL814:
	ldr	r1, .L1008+4
.LVL815:
	ldr	r2, .L1008+28
.LVL816:
	ldr	r3, .L1008+12
.LVL817:
	bl	_assert_fail
.LVL818:
.L1005:
	.loc 25 1956 0
	ldr	r0, .L1008+32
.LVL819:
	ldr	r1, .L1008+4
.LVL820:
	ldr	r2, .L1008+36
.LVL821:
	ldr	r3, .L1008+12
.LVL822:
	bl	_assert_fail
.LVL823:
.L1004:
	.loc 25 1953 0
	ldr	r0, .L1008+40
.LVL824:
	ldr	r1, .L1008+4
.LVL825:
	ldr	r2, .L1008+44
.LVL826:
	ldr	r3, .L1008+12
.LVL827:
	bl	_assert_fail
.LVL828:
.L1003:
	.loc 25 1950 0
	ldr	r0, .L1008+48
.LVL829:
	ldr	r1, .L1008+4
.LVL830:
	ldr	r2, .L1008+52
.LVL831:
	ldr	r3, .L1008+12
.LVL832:
	bl	_assert_fail
.LVL833:
.L1002:
	.loc 25 1944 0
	ldr	r0, .L1008+56
.LVL834:
	ldr	r1, .L1008+4
.LVL835:
	ldr	r2, .L1008+60
.LVL836:
	ldr	r3, .L1008+12
.LVL837:
	bl	_assert_fail
.LVL838:
.L1001:
	.loc 25 1941 0
	ldr	r0, .L1008+64
.LVL839:
	ldr	r1, .L1008+4
.LVL840:
	ldr	r2, .L1008+68
.LVL841:
	ldr	r3, .L1008+12
.LVL842:
	bl	_assert_fail
.LVL843:
.L1009:
	.align	2
.L1008:
	.word	.LC71
	.word	.LC5
	.word	1938
	.word	.LANCHOR3+3172
	.word	.LC78
	.word	1965
	.word	.LC77
	.word	1959
	.word	.LC76
	.word	1956
	.word	.LC75
	.word	1953
	.word	.LC74
	.word	1950
	.word	.LC73
	.word	1944
	.word	.LC72
	.word	1941
	.cfi_endproc
.LFE860:
	.size	pte_pte_small_new.constprop.192, .-pte_pte_small_new.constprop.192
	.align	2
	.type	pte_pte_large_new.constprop.193, %function
pte_pte_large_new.constprop.193:
.LFB859:
	.loc 25 1849 0
	.cfi_startproc
	@ args = 8, pretend = 0, frame = 0
	@ frame_needed = 0, uses_anonymous_args = 0
.LVL844:
	.loc 25 1855 0
	uxth	ip, r0
	.loc 25 1849 0
	stmfd	sp!, {r3, r4, r5, lr}
.LCFI155:
	.cfi_def_cfa_offset 16
	.cfi_offset 3, -16
	.cfi_offset 4, -12
	.cfi_offset 5, -8
	.cfi_offset 14, -4
	.loc 25 1855 0
	cmp	ip, #0
	.loc 25 1849 0
	ldr	r4, [sp, #20]
	ldr	ip, [sp, #16]
	.loc 25 1855 0
	bne	.L1017
	.loc 25 1856 0
	mov	r0, r0, lsr #16
.LVL845:
	.loc 25 1858 0
	bics	r5, r1, #1
	.loc 25 1856 0
	mov	r0, r0, asl #16
.LVL846:
	.loc 25 1858 0
	bne	.L1018
	.loc 25 1859 0
	mov	r1, r1, asl #15
.LVL847:
	.loc 25 1861 0
	bics	r5, r2, #7
	.loc 25 1859 0
	uxth	r1, r1
.LVL848:
	.loc 25 1861 0
	bne	.L1019
	.loc 25 1862 0
	and	r2, r2, #7
.LVL849:
	.loc 25 1867 0
	bics	r5, r3, #1
	.loc 25 1862 0
	mov	r2, r2, asl #12
.LVL850:
	.loc 25 1867 0
	bne	.L1020
	.loc 25 1868 0
	and	r3, r3, #1
.LVL851:
	.loc 25 1873 0
	bics	r5, ip, #3
	.loc 25 1868 0
	mov	r3, r3, asl #10
.LVL852:
	.loc 25 1873 0
	bne	.L1021
	.loc 25 1874 0
	and	ip, ip, #3
	.loc 25 1879 0
	bics	r5, r4, #1
	.loc 25 1874 0
	mov	ip, ip, asl #4
.LVL853:
	.loc 25 1879 0
	bne	.L1022
.LVL854:
	.loc 25 1862 0
	orr	r0, r0, #2048
.LVL855:
	orr	r0, r0, #1
	.loc 25 1865 0
	orr	r1, r0, r1
.LVL856:
	.loc 25 1868 0
	orr	r2, r1, r2
.LVL857:
	.loc 25 1874 0
	orr	r3, r2, r3
.LVL858:
	.loc 25 1880 0
	and	r0, r4, #1
	orr	ip, r3, ip
.LVL859:
	.loc 25 1889 0
	orr	r0, ip, r0, asl #2
	ldmfd	sp!, {r3, r4, r5, pc}
.LVL860:
.L1017:
.LBB3789:
.LBB3790:
	.loc 25 1855 0
	ldr	r0, .L1023
.LVL861:
	ldr	r1, .L1023+4
.LVL862:
	ldr	r2, .L1023+8
.LVL863:
	ldr	r3, .L1023+12
.LVL864:
	bl	_assert_fail
.LVL865:
.L1022:
.LBE3790:
.LBE3789:
	.loc 25 1879 0
	ldr	r0, .L1023+16
.LVL866:
	ldr	r1, .L1023+4
.LVL867:
	ldr	r2, .L1023+20
.LVL868:
	ldr	r3, .L1023+12
.LVL869:
	bl	_assert_fail
.LVL870:
.L1021:
	.loc 25 1873 0
	ldr	r0, .L1023+24
.LVL871:
	ldr	r1, .L1023+4
.LVL872:
	ldr	r2, .L1023+28
.LVL873:
	ldr	r3, .L1023+12
.LVL874:
	bl	_assert_fail
.LVL875:
.L1020:
	.loc 25 1867 0
	ldr	r0, .L1023+32
.LVL876:
	ldr	r1, .L1023+4
.LVL877:
	ldr	r2, .L1023+36
.LVL878:
	ldr	r3, .L1023+12
.LVL879:
	bl	_assert_fail
.LVL880:
.L1019:
	.loc 25 1861 0
	ldr	r0, .L1023+40
.LVL881:
	ldr	r1, .L1023+4
.LVL882:
	ldr	r2, .L1023+44
.LVL883:
	ldr	r3, .L1023+12
.LVL884:
	bl	_assert_fail
.LVL885:
.L1018:
	.loc 25 1858 0
	ldr	r0, .L1023+48
.LVL886:
	ldr	r1, .L1023+4
.LVL887:
	ldr	r2, .L1023+52
.LVL888:
	ldr	r3, .L1023+12
.LVL889:
	bl	_assert_fail
.LVL890:
.L1024:
	.align	2
.L1023:
	.word	.LC79
	.word	.LC5
	.word	1855
	.word	.LANCHOR3+3192
	.word	.LC77
	.word	1879
	.word	.LC75
	.word	1873
	.word	.LC73
	.word	1867
	.word	.LC74
	.word	1861
	.word	.LC78
	.word	1858
	.cfi_endproc
.LFE859:
	.size	pte_pte_large_new.constprop.193, .-pte_pte_large_new.constprop.193
	.align	2
	.global	performASIDPoolInvocation
	.type	performASIDPoolInvocation, %function
performASIDPoolInvocation:
.LFB388:
	.loc 10 2213 0
	.cfi_startproc
	@ args = 0, pretend = 0, frame = 0
	@ frame_needed = 0, uses_anonymous_args = 0
.LVL891:
.LBB3797:
.LBB3798:
	.loc 25 1663 0
	ldr	r3, [r2, #0]
.LBE3798:
.LBE3797:
	.loc 10 2213 0
	mov	ip, r0
.LVL892:
.LBB3803:
.LBB3799:
	.loc 25 1663 0
	and	r0, r3, #15
.LVL893:
	cmp	r0, #9
.LBE3799:
.LBE3803:
	.loc 10 2213 0
	stmfd	sp!, {r4, r5, r6, lr}
.LCFI156:
	.cfi_def_cfa_offset 16
	.cfi_offset 4, -16
	.cfi_offset 5, -12
	.cfi_offset 6, -8
	.cfi_offset 14, -4
.LBB3804:
.LBB3800:
	.loc 25 1663 0
	bne	.L1028
	.loc 25 1667 0
	mov	r0, ip, lsr #18
	movs	r0, r0, asl #18
	bne	.L1029
	.loc 25 1669 0
	ldr	r5, [r2, #4]
	.loc 25 1670 0
	bic	r6, ip, #-16777216
	bic	r6, r6, #16515072
	.loc 25 1669 0
	mov	r5, r5, lsr #18
.LBE3800:
.LBE3804:
	.loc 10 2216 0
	mov	ip, ip, asl #22
.LVL894:
.LBB3805:
.LBB3806:
	.loc 25 1678 0
	bic	r4, r3, #16320
.LBE3806:
.LBE3805:
.LBB3808:
.LBB3801:
	.loc 25 1670 0
	orr	r5, r6, r5, asl #18
.LBE3801:
.LBE3808:
.LBB3809:
.LBB3810:
	.loc 25 1711 0
	orr	r3, r3, #16
.LBE3810:
.LBE3809:
.LBB3812:
.LBB3807:
	.loc 25 1678 0
	bic	r4, r4, #63
.LBE3807:
.LBE3812:
.LBB3813:
.LBB3811:
	.loc 25 1711 0
	stmia	r2, {r3, r5}
.LVL895:
.LBE3811:
.LBE3813:
	.loc 10 2216 0
	str	r4, [r1, ip, lsr #20]
	.loc 10 2220 0
	ldmfd	sp!, {r4, r5, r6, pc}
.LVL896:
.L1028:
.LBB3814:
.LBB3802:
	.loc 25 1663 0
	ldr	r0, .L1030
	ldr	r1, .L1030+4
.LVL897:
	mov	r2, #1664
.LVL898:
	ldr	r3, .L1030+8
	bl	_assert_fail
.LVL899:
.L1029:
	.loc 25 1667 0
	ldr	r0, .L1030+12
	ldr	r1, .L1030+4
.LVL900:
	ldr	r2, .L1030+16
.LVL901:
	ldr	r3, .L1030+8
	bl	_assert_fail
.LVL902:
.L1031:
	.align	2
.L1030:
	.word	.LC80
	.word	.LC5
	.word	.LANCHOR3+3212
	.word	.LC81
	.word	1667
.LBE3802:
.LBE3814:
	.cfi_endproc
.LFE388:
	.size	performASIDPoolInvocation, .-performASIDPoolInvocation
	.align	2
	.type	invalidateASID, %function
invalidateASID:
.LFB344:
	.loc 10 474 0
	.cfi_startproc
	@ args = 0, pretend = 0, frame = 0
	@ frame_needed = 0, uses_anonymous_args = 0
.LVL903:
	stmfd	sp!, {r3, lr}
.LCFI157:
	.cfi_def_cfa_offset 8
	.cfi_offset 3, -8
	.cfi_offset 14, -4
	.loc 10 478 0
	mov	r2, r0, lsr #10
	ldr	r3, .L1036
	ldr	r3, [r3, r2, asl #2]
.LVL904:
	.loc 10 479 0
	cmp	r3, #0
	beq	.L1035
	.loc 10 481 0
	mov	r0, r0, asl #22
.LVL905:
	ldr	r3, [r3, r0, lsr #20]
.LVL906:
	.loc 10 482 0
	cmp	r3, #0
	.loc 10 484 0
	movne	r2, #16320
.LVL907:
	movne	r1, #0
	strne	r1, [r3, r2]
	.loc 10 482 0
	ldmnefd	sp!, {r3, pc}
	.loc 10 482 0 is_stmt 0 discriminator 1
	ldr	r0, .L1036+4
	ldr	r1, .L1036+8
	ldr	r2, .L1036+12
	ldr	r3, .L1036+16
.LVL908:
	bl	_assert_fail
.LVL909:
.L1035:
.LBB3819:
.LBB3820:
	.loc 10 479 0 is_stmt 1
	ldr	r0, .L1036+20
.LVL910:
	ldr	r1, .L1036+8
	ldr	r2, .L1036+24
	ldr	r3, .L1036+16
.LVL911:
	bl	_assert_fail
.LVL912:
.L1037:
	.align	2
.L1036:
	.word	armKSASIDTable
	.word	.LC65
	.word	.LC64
	.word	482
	.word	.LANCHOR3+3260
	.word	.LC63
	.word	479
.LBE3820:
.LBE3819:
	.cfi_endproc
.LFE344:
	.size	invalidateASID, .-invalidateASID
	.align	2
	.global	findFreeHWASID
	.type	findFreeHWASID, %function
findFreeHWASID:
.LFB359:
	.loc 10 833 0
	.cfi_startproc
	@ args = 0, pretend = 0, frame = 0
	@ frame_needed = 0, uses_anonymous_args = 0
.LVL913:
	stmfd	sp!, {r4, r5, r6, lr}
.LCFI158:
	.cfi_def_cfa_offset 16
	.cfi_offset 4, -16
	.cfi_offset 5, -12
	.cfi_offset 6, -8
	.cfi_offset 14, -4
	.loc 10 838 0
	mov	r3, #0
	ldr	r6, .L1045
	ldr	r5, .L1045+4
	ldrb	r4, [r6, #0]	@ zero_extendqisi2
.LVL914:
.L1040:
	.loc 10 832 0
	add	r0, r4, r3
	.loc 10 842 0
	ldr	r1, .L1045+4
	.loc 10 832 0
	uxtb	r0, r0
	.loc 10 840 0
	add	r3, r3, #1
.LVL915:
	.loc 10 842 0
	ldr	r2, [r5, r0, asl #2]
	cmp	r2, #0
	ldmeqfd	sp!, {r4, r5, r6, pc}
	.loc 10 838 0
	cmp	r3, #256
	bne	.L1040
.LVL916:
	.loc 10 850 0
	ldr	r0, [r1, r4, asl #2]
	bl	invalidateASID
.LVL917:
.LBB3821:
.LBB3822:
.LBB3823:
.LBB3824:
	.loc 5 18 0
	mov	r3, #0
#APP
@ 18 "/home/zj/seL4/myseL4/kernel/include/arch/arm/armv/armv6/armv/machine.h" 1
	mcr p15, 0, r3, c7, c10, 4
@ 0 "" 2
.LBE3824:
.LBE3823:
	.loc 6 159 0
#APP
@ 159 "/home/zj/seL4/myseL4/kernel/include/arch/arm/arch/machine.h" 1
	mcr p15, 0, r4, c8, c7, 2
@ 0 "" 2
.LBB3825:
.LBB3826:
	.loc 5 18 0
#APP
@ 18 "/home/zj/seL4/myseL4/kernel/include/arch/arm/armv/armv6/armv/machine.h" 1
	mcr p15, 0, r3, c7, c10, 4
@ 0 "" 2
.LBE3826:
.LBE3825:
.LBB3827:
.LBB3828:
	.loc 5 32 0
#APP
@ 32 "/home/zj/seL4/myseL4/kernel/include/arch/arm/armv/armv6/armv/machine.h" 1
	mcr p15, 0, r3, c7, c5, 4
@ 0 "" 2
.LBE3828:
.LBE3827:
.LBE3822:
.LBE3821:
	.loc 10 857 0
	ldrb	r2, [r6, #0]	@ zero_extendqisi2
	.loc 10 854 0
	str	r3, [r5, r4, asl #2]
	.loc 10 841 0
	mov	r0, r4
	.loc 10 857 0
	add	r3, r2, #1
	strb	r3, [r6, #0]
	.loc 10 860 0
	ldmfd	sp!, {r4, r5, r6, pc}
.L1046:
	.align	2
.L1045:
	.word	armKSNextASID
	.word	armKSHWASIDTable
	.cfi_endproc
.LFE359:
	.size	findFreeHWASID, .-findFreeHWASID
	.align	2
	.type	invalidateASIDEntry, %function
invalidateASIDEntry:
.LFB345:
	.loc 10 489 0
	.cfi_startproc
	@ args = 0, pretend = 0, frame = 0
	@ frame_needed = 0, uses_anonymous_args = 0
.LVL918:
	stmfd	sp!, {r4, lr}
.LCFI159:
	.cfi_def_cfa_offset 8
	.cfi_offset 4, -8
	.cfi_offset 14, -4
	.loc 10 489 0
	mov	r4, r0
	.loc 10 492 0
	bl	loadHWASID
.LVL919:
.LBB3833:
.LBB3834:
	.loc 25 616 0
	ands	r2, r0, #3
	bne	.L1053
.LBE3834:
.LBE3833:
	.loc 10 493 0
	tst	r0, #8388608
.LVL920:
.LBB3835:
.LBB3836:
	.loc 25 611 0
	movne	r3, r0, lsr #24
.LBE3836:
.LBE3835:
	.loc 10 494 0
	ldrne	r1, .L1054
	.loc 10 497 0
	mov	r0, r4
.LVL921:
	.loc 10 494 0
	strne	r2, [r1, r3, asl #2]
	.loc 10 498 0
	ldmfd	sp!, {r4, lr}
	.loc 10 497 0
	b	invalidateASID
.LVL922:
.L1053:
	bl	pde_pde_invalid_get_stored_asid_valid.part.157
.LVL923:
.L1055:
	.align	2
.L1054:
	.word	armKSHWASIDTable
	.cfi_endproc
.LFE345:
	.size	invalidateASIDEntry, .-invalidateASIDEntry
	.align	2
	.global	setCurrentASID
	.type	setCurrentASID, %function
setCurrentASID:
.LFB361:
	.loc 10 881 0
	.cfi_startproc
	@ args = 0, pretend = 0, frame = 0
	@ frame_needed = 0, uses_anonymous_args = 0
.LVL924:
	stmfd	sp!, {r4, lr}
.LCFI160:
	.cfi_def_cfa_offset 8
	.cfi_offset 4, -8
	.cfi_offset 14, -4
	.loc 10 884 0
	subs	r4, r0, #0
	beq	.L1063
.LVL925:
.LBB3858:
.LBB3859:
	.loc 10 867 0
	bl	loadHWASID
.LVL926:
.LBB3860:
.LBB3861:
	.loc 25 616 0
	tst	r0, #3
	bne	.L1064
.LVL927:
.LBE3861:
.LBE3860:
	.loc 10 868 0
	tst	r0, #8388608
	movne	r0, r0, lsr #24
.LVL928:
	beq	.L1065
.L1060:
.LBE3859:
.LBE3858:
.LBB3874:
.LBB3875:
.LBB3876:
	.loc 5 18 0
	mov	r3, #0
#APP
@ 18 "/home/zj/seL4/myseL4/kernel/include/arch/arm/armv/armv6/armv/machine.h" 1
	mcr p15, 0, r3, c7, c10, 4
@ 0 "" 2
.LBE3876:
.LBE3875:
.LBB3877:
.LBB3878:
	.loc 6 116 0
#APP
@ 116 "/home/zj/seL4/myseL4/kernel/include/arch/arm/arch/machine.h" 1
	mcr p15, 0, r3, c7, c5, 6
@ 0 "" 2
.LVL929:
.LBE3878:
.LBE3877:
.LBB3879:
.LBB3880:
	.loc 6 123 0
#APP
@ 123 "/home/zj/seL4/myseL4/kernel/include/arch/arm/arch/machine.h" 1
	mcr p15, 0, r0, c13, c0, 1
@ 0 "" 2
.LBB3881:
.LBB3882:
	.loc 5 32 0
#APP
@ 32 "/home/zj/seL4/myseL4/kernel/include/arch/arm/armv/armv6/armv/machine.h" 1
	mcr p15, 0, r3, c7, c5, 4
@ 0 "" 2
	ldmfd	sp!, {r4, pc}
.LVL930:
.L1065:
.LBE3882:
.LBE3881:
.LBE3880:
.LBE3879:
.LBE3874:
.LBB3883:
.LBB3872:
.LBB3862:
	.loc 10 873 0
	bl	findFreeHWASID
.LVL931:
.LBB3863:
.LBB3864:
	.loc 10 803 0
	ldr	r3, .L1068
	mov	r2, r4, lsr #10
	ldr	r3, [r3, r2, asl #2]
.LVL932:
	.loc 10 804 0
	cmp	r3, #0
	beq	.L1066
	.loc 10 806 0
	mov	r2, r4, asl #22
	ldr	r3, [r3, r2, lsr #20]
.LVL933:
	.loc 10 807 0
	cmp	r3, #0
	beq	.L1067
.LVL934:
	.loc 10 813 0
	ldr	r2, .L1068+4
.LBB3865:
.LBB3866:
	.loc 25 595 0
	mov	ip, r0, asl #24
.LBE3866:
.LBE3865:
	.loc 10 811 0
	mov	r1, #16320
.LBB3868:
.LBB3867:
	.loc 25 598 0
	orr	ip, ip, #8388608
.LVL935:
.LBE3867:
.LBE3868:
	.loc 10 811 0
	str	ip, [r3, r1]
	.loc 10 813 0
	str	r4, [r2, r0, asl #2]
	b	.L1060
.LVL936:
.L1064:
	bl	pde_pde_invalid_get_stored_asid_valid.part.157
.LVL937:
.L1063:
.LBE3864:
.LBE3863:
.LBE3862:
.LBE3872:
.LBE3883:
	.loc 10 884 0 discriminator 1
	ldr	r0, .L1068+8
.LVL938:
	ldr	r1, .L1068+12
	mov	r2, #884
	ldr	r3, .L1068+16
	bl	_assert_fail
.LVL939:
.L1066:
.LBB3884:
.LBB3873:
.LBB3871:
.LBB3870:
.LBB3869:
	.loc 10 804 0
	ldr	r0, .L1068+20
.LVL940:
	ldr	r1, .L1068+12
	mov	r2, #804
	ldr	r3, .L1068+24
.LVL941:
	bl	_assert_fail
.LVL942:
.L1067:
	.loc 10 807 0
	ldr	r0, .L1068+28
.LVL943:
	ldr	r1, .L1068+12
	ldr	r2, .L1068+32
	ldr	r3, .L1068+24
.LVL944:
	bl	_assert_fail
.LVL945:
.L1069:
	.align	2
.L1068:
	.word	armKSASIDTable
	.word	armKSHWASIDTable
	.word	.LC82
	.word	.LC64
	.word	.LANCHOR3+3276
	.word	.LC63
	.word	.LANCHOR3+3292
	.word	.LC65
	.word	807
.LBE3869:
.LBE3870:
.LBE3871:
.LBE3873:
.LBE3884:
	.cfi_endproc
.LFE361:
	.size	setCurrentASID, .-setCurrentASID
	.align	2
	.global	armv_contextSwitch
	.type	armv_contextSwitch, %function
armv_contextSwitch:
.LFB289:
	.loc 4 14 0
	.cfi_startproc
	@ args = 0, pretend = 0, frame = 0
	@ frame_needed = 0, uses_anonymous_args = 0
	@ link register save eliminated.
.LVL946:
.LBB3885:
.LBB3886:
.LBB3887:
.LBB3888:
	.loc 5 18 0
	mov	r3, #0
#APP
@ 18 "/home/zj/seL4/myseL4/kernel/include/arch/arm/armv/armv6/armv/machine.h" 1
	mcr p15, 0, r3, c7, c10, 4
@ 0 "" 2
.LBE3888:
.LBE3887:
.LBE3886:
.LBE3885:
.LBB3892:
.LBB3893:
	.loc 11 39 0
	add	r0, r0, #-1879048192
.LVL947:
.LBE3893:
.LBE3892:
.LBB3894:
.LBB3891:
	.loc 6 140 0
	bic	r0, r0, #8128
.LVL948:
	bic	r0, r0, #63
	orr	r0, r0, #24
	.loc 6 139 0
#APP
@ 139 "/home/zj/seL4/myseL4/kernel/include/arch/arm/arch/machine.h" 1
	mcr p15, 0, r0, c2, c0, 0
@ 0 "" 2
.LBB3889:
.LBB3890:
	.loc 5 32 0
#APP
@ 32 "/home/zj/seL4/myseL4/kernel/include/arch/arm/armv/armv6/armv/machine.h" 1
	mcr p15, 0, r3, c7, c5, 4
@ 0 "" 2
.LBE3890:
.LBE3889:
.LBE3891:
.LBE3894:
	.loc 4 16 0
	mov	r0, r1
	.loc 4 17 0
	.loc 4 16 0
	b	setCurrentASID
.LVL949:
	.cfi_endproc
.LFE289:
	.size	armv_contextSwitch, .-armv_contextSwitch
	.align	2
	.type	setVMRootForFlush, %function
setVMRootForFlush:
.LFB353:
	.loc 10 731 0
	.cfi_startproc
	@ args = 0, pretend = 0, frame = 0
	@ frame_needed = 0, uses_anonymous_args = 0
.LVL950:
	stmfd	sp!, {r3, lr}
.LCFI161:
	.cfi_def_cfa_offset 8
	.cfi_offset 3, -8
	.cfi_offset 14, -4
	.loc 10 734 0
	ldr	r3, .L1083
	ldr	r3, [r3, #0]
	bic	r3, r3, #508
	bic	r3, r3, #3
	ldr	r3, [r3, #16]
.LVL951:
.LBB3901:
.LBB3902:
	.loc 25 777 0
	and	r2, r3, #14
	cmp	r2, #14
	.loc 25 778 0
	andne	r2, r3, #15
	.loc 25 779 0
	uxtbeq	r2, r3
.LBE3902:
.LBE3901:
	.loc 10 736 0
	cmp	r2, #9
	beq	.L1081
.LVL952:
.L1074:
	.loc 10 742 0
	bl	armv_contextSwitch
.LVL953:
	.loc 10 744 0
	mov	r0, #1
	ldmfd	sp!, {r3, pc}
.LVL954:
.L1081:
.LBB3903:
.LBB3904:
	.loc 25 1683 0
	and	r2, r3, #15
	cmp	r2, #9
	bne	.L1082
.LBE3904:
.LBE3903:
	.loc 10 736 0
	tst	r3, #16
	beq	.L1074
.LVL955:
.LBB3905:
.LBB3906:
	.loc 25 1678 0
	bic	r3, r3, #16320
.LVL956:
	bic	r3, r3, #63
.LBE3906:
.LBE3905:
	.loc 10 737 0
	cmp	r0, r3
	bne	.L1074
	.loc 10 739 0
	mov	r0, #0
.LVL957:
	.loc 10 745 0
	ldmfd	sp!, {r3, pc}
.LVL958:
.L1082:
	bl	cap_page_directory_cap_get_capPDIsMapped.isra.133.part.134
.LVL959:
.L1084:
	.align	2
.L1083:
	.word	ksCurThread
	.cfi_endproc
.LFE353:
	.size	setVMRootForFlush, .-setVMRootForFlush
	.align	2
	.global	setVMRoot
	.type	setVMRoot, %function
setVMRoot:
.LFB352:
	.loc 10 704 0
	.cfi_startproc
	@ args = 0, pretend = 0, frame = 16
	@ frame_needed = 0, uses_anonymous_args = 0
.LVL960:
	.loc 10 710 0
	bic	r0, r0, #508
.LVL961:
	bic	r3, r0, #3
	add	r3, r3, #16
	.loc 10 704 0
	stmfd	sp!, {r4, r5, lr}
.LCFI162:
	.cfi_def_cfa_offset 12
	.cfi_offset 4, -12
	.cfi_offset 5, -8
	.cfi_offset 14, -4
	sub	sp, sp, #20
.LCFI163:
	.cfi_def_cfa_offset 32
	.loc 10 710 0
	ldmia	r3, {r0, r1}
.LVL962:
	mov	r2, sp
.LBB3931:
.LBB3932:
	.loc 25 777 0
	and	ip, r0, #14
	cmp	ip, #14
	.loc 25 778 0
	andne	r2, r0, #15
	.loc 25 779 0
	uxtbeq	r2, r0
.LBE3932:
.LBE3931:
	.loc 10 712 0
	cmp	r2, #9
	.loc 10 710 0
	stmia	sp, {r0, r1}
	.loc 10 712 0
	beq	.L1094
.LVL963:
.L1092:
.LBB3933:
.LBB3934:
.LBB3935:
.LBB3936:
	.loc 5 18 0
	mov	r3, #0
#APP
@ 18 "/home/zj/seL4/myseL4/kernel/include/arch/arm/armv/armv6/armv/machine.h" 1
	mcr p15, 0, r3, c7, c10, 4
@ 0 "" 2
.LBE3936:
.LBE3935:
.LBE3934:
.LBE3933:
.LBB3940:
.LBB3941:
	.loc 11 39 0
	ldr	r3, .L1096
.LBE3941:
.LBE3940:
.LBB3942:
.LBB3939:
	.loc 6 140 0
	bic	r3, r3, #8128
	bic	r3, r3, #63
	orr	r3, r3, #24
	.loc 6 139 0
#APP
@ 139 "/home/zj/seL4/myseL4/kernel/include/arch/arm/arch/machine.h" 1
	mcr p15, 0, r3, c2, c0, 0
@ 0 "" 2
.LBB3937:
.LBB3938:
	.loc 5 32 0
	mov	r3, #0
#APP
@ 32 "/home/zj/seL4/myseL4/kernel/include/arch/arm/armv/armv6/armv/machine.h" 1
	mcr p15, 0, r3, c7, c5, 4
@ 0 "" 2
.LBE3938:
.LBE3937:
.LBE3939:
.LBE3942:
	.loc 10 727 0
	add	sp, sp, #20
	ldmfd	sp!, {r4, r5, pc}
.LVL964:
.L1094:
.LBB3943:
.LBB3944:
	.loc 25 1683 0
	and	r2, r0, #15
	cmp	r2, #9
	bne	.L1095
.LBE3944:
.LBE3943:
	.loc 10 712 0
	tst	r0, #16
	beq	.L1092
.LVL965:
.LBB3945:
.LBB3946:
	.loc 25 1657 0
	ldr	r4, [sp, #4]
.LBE3946:
.LBE3945:
.LBB3948:
.LBB3949:
	.loc 25 1678 0
	bic	r3, r0, #16320
.LBE3949:
.LBE3948:
.LBB3951:
.LBB3947:
	.loc 25 1657 0
	bic	r4, r4, #-16777216
	bic	r4, r4, #16515072
.LBE3947:
.LBE3951:
	.loc 10 720 0
	mov	r1, r4
	add	r0, sp, #8
.LVL966:
.LBB3952:
.LBB3950:
	.loc 25 1678 0
	bic	r5, r3, #63
.LVL967:
.LBE3950:
.LBE3952:
	.loc 10 720 0
	bl	findPDForASID
.LVL968:
	.loc 10 721 0
	ldr	r3, [sp, #8]
	cmp	r3, #0
	bne	.L1092
	.loc 10 721 0 is_stmt 0 discriminator 1
	ldr	r3, [sp, #12]
	cmp	r5, r3
	bne	.L1092
	.loc 10 726 0 is_stmt 1
	mov	r0, r5
	mov	r1, r4
	.loc 10 727 0
	add	sp, sp, #20
	ldmfd	sp!, {r4, r5, lr}
	.loc 10 726 0
	b	armv_contextSwitch
.LVL969:
.L1095:
	bl	cap_page_directory_cap_get_capPDIsMapped.isra.133.part.134
.LVL970:
.L1097:
	.align	2
.L1096:
	.word	.LANCHOR1-1879048176
	.cfi_endproc
.LFE352:
	.size	setVMRoot, .-setVMRoot
	.align	2
	.global	flushTable
	.type	flushTable, %function
flushTable:
.LFB363:
	.loc 10 918 0
	.cfi_startproc
	@ args = 0, pretend = 0, frame = 0
	@ frame_needed = 0, uses_anonymous_args = 0
.LVL971:
	.loc 10 922 0
	bic	r2, r2, #-16777216
.LVL972:
	bic	r2, r2, #15728640
	cmp	r2, #0
	.loc 10 918 0
	stmfd	sp!, {r3, r4, r5, lr}
.LCFI164:
	.cfi_def_cfa_offset 16
	.cfi_offset 3, -16
	.cfi_offset 4, -12
	.cfi_offset 5, -8
	.cfi_offset 14, -4
	.loc 10 918 0
	mov	r4, r1
	.loc 10 922 0
	bne	.L1107
	.loc 10 925 0
	bl	setVMRootForFlush
.LVL973:
	mov	r5, r0
.LVL974:
	.loc 10 926 0
	mov	r0, r4
.LVL975:
	bl	loadHWASID
.LVL976:
.LBB3965:
.LBB3966:
	.loc 25 616 0
	ands	r3, r0, #3
	bne	.L1108
.LBE3966:
.LBE3965:
	.loc 10 928 0
	tst	r0, #8388608
	ldmeqfd	sp!, {r3, r4, r5, pc}
.LVL977:
.LBB3967:
.LBB3968:
.LBB3969:
.LBB3970:
	.loc 5 18 0
#APP
@ 18 "/home/zj/seL4/myseL4/kernel/include/arch/arm/armv/armv6/armv/machine.h" 1
	mcr p15, 0, r3, c7, c10, 4
@ 0 "" 2
.LBE3970:
.LBE3969:
.LBE3968:
.LBE3967:
.LBB3976:
.LBB3977:
	.loc 25 611 0
	mov	r0, r0, lsr #24
.LVL978:
.LBE3977:
.LBE3976:
.LBB3978:
.LBB3975:
	.loc 6 159 0
#APP
@ 159 "/home/zj/seL4/myseL4/kernel/include/arch/arm/arch/machine.h" 1
	mcr p15, 0, r0, c8, c7, 2
@ 0 "" 2
.LBB3971:
.LBB3972:
	.loc 5 18 0
	mov	r3, #0
#APP
@ 18 "/home/zj/seL4/myseL4/kernel/include/arch/arm/armv/armv6/armv/machine.h" 1
	mcr p15, 0, r3, c7, c10, 4
@ 0 "" 2
.LBE3972:
.LBE3971:
.LBB3973:
.LBB3974:
	.loc 5 32 0
#APP
@ 32 "/home/zj/seL4/myseL4/kernel/include/arch/arm/armv/armv6/armv/machine.h" 1
	mcr p15, 0, r3, c7, c5, 4
@ 0 "" 2
.LBE3974:
.LBE3973:
.LBE3975:
.LBE3978:
	.loc 10 930 0
	cmp	r5, r3
	ldmeqfd	sp!, {r3, r4, r5, pc}
	.loc 10 931 0
	ldr	r3, .L1109
	ldr	r0, [r3, #0]
	.loc 10 934 0
	ldmfd	sp!, {r3, r4, r5, lr}
	.loc 10 931 0
	b	setVMRoot
.LVL979:
.L1108:
	bl	pde_pde_invalid_get_stored_asid_valid.part.157
.LVL980:
.L1107:
	.loc 10 922 0 discriminator 1
	ldr	r0, .L1109+4
.LVL981:
	ldr	r1, .L1109+8
.LVL982:
	ldr	r2, .L1109+12
	ldr	r3, .L1109+16
.LVL983:
	bl	_assert_fail
.LVL984:
.L1110:
	.align	2
.L1109:
	.word	ksCurThread
	.word	.LC83
	.word	.LC64
	.word	922
	.word	.LANCHOR3+3304
	.cfi_endproc
.LFE363:
	.size	flushTable, .-flushTable
	.align	2
	.global	unmapPageTable
	.type	unmapPageTable, %function
unmapPageTable:
.LFB349:
	.loc 10 560 0
	.cfi_startproc
	@ args = 0, pretend = 0, frame = 0
	@ frame_needed = 0, uses_anonymous_args = 0
.LVL985:
	stmfd	sp!, {r4, r5, r6, lr}
.LCFI165:
	.cfi_def_cfa_offset 16
	.cfi_offset 4, -16
	.cfi_offset 5, -12
	.cfi_offset 6, -8
	.cfi_offset 14, -4
	.loc 10 560 0
	mov	r5, r0
	mov	r4, r1
	mov	r6, r2
	.loc 10 564 0
	bl	pageTableMapped
.LVL986:
	.loc 10 566 0
	cmp	r0, #0
	ldmeqfd	sp!, {r4, r5, r6, pc}
.LVL987:
	.loc 10 567 0
	mov	ip, r4, lsr #20
.LVL988:
	.loc 10 570 0
	mov	r3, #0
	str	r3, [r0, ip, asl #2]
	.loc 10 568 0
	add	ip, r0, ip, asl #2
.LVL989:
.LBB3987:
.LBB3988:
	.loc 6 201 0
#APP
@ 201 "/home/zj/seL4/myseL4/kernel/include/arch/arm/arch/machine.h" 1
	mcr p15, 0, ip, c7, c10, 1
@ 0 "" 2
.LBB3989:
.LBB3990:
	.loc 5 25 0
#APP
@ 25 "/home/zj/seL4/myseL4/kernel/include/arch/arm/armv/armv6/armv/machine.h" 1
	mcr p15, 0, r3, c7, c10, 5
@ 0 "" 2
.LBE3990:
.LBE3989:
.LBE3988:
.LBE3987:
	.loc 10 572 0
	mov	r1, r5
	mov	r2, r4
	mov	r3, r6
	.loc 10 574 0
	ldmfd	sp!, {r4, r5, r6, lr}
	.loc 10 572 0
	b	flushTable
.LVL990:
	.cfi_endproc
.LFE349:
	.size	unmapPageTable, .-unmapPageTable
	.align	2
	.global	Arch_switchToThread
	.type	Arch_switchToThread, %function
Arch_switchToThread:
.LFB326:
	.loc 8 20 0
	.cfi_startproc
	@ args = 0, pretend = 0, frame = 8
	@ frame_needed = 0, uses_anonymous_args = 0
.LVL991:
	stmfd	sp!, {r4, lr}
.LCFI166:
	.cfi_def_cfa_offset 8
	.cfi_offset 4, -8
	.cfi_offset 14, -4
	mov	r4, r0
	sub	sp, sp, #8
.LCFI167:
	.cfi_def_cfa_offset 16
	.loc 8 21 0
	bl	setVMRoot
.LVL992:
	.loc 8 22 0
	ldr	r2, .L1114
	ldr	r1, [r4, #116]
.LBB3991:
.LBB3992:
	.loc 6 109 0
	add	r3, sp, #4
.LBE3992:
.LBE3991:
	.loc 8 22 0
	str	r1, [r2, #0]
.LBB3994:
.LBB3993:
	.loc 6 109 0
#APP
@ 109 "/home/zj/seL4/myseL4/kernel/include/arch/arm/arch/machine.h" 1
	strex r0, r1, [r3]
@ 0 "" 2
.LBE3993:
.LBE3994:
	.loc 8 24 0
	add	sp, sp, #8
	ldmfd	sp!, {r4, pc}
.L1115:
	.align	2
.L1114:
	.word	.LANCHOR0
	.cfi_endproc
.LFE326:
	.size	Arch_switchToThread, .-Arch_switchToThread
	.align	2
	.global	deleteASID
	.type	deleteASID, %function
deleteASID:
.LFB347:
	.loc 10 522 0
	.cfi_startproc
	@ args = 0, pretend = 0, frame = 0
	@ frame_needed = 0, uses_anonymous_args = 0
.LVL993:
	.loc 10 525 0
	ldr	r3, .L1121
	mov	r2, r0, lsr #10
	.loc 10 522 0
	stmfd	sp!, {r4, r5, r6, lr}
.LCFI168:
	.cfi_def_cfa_offset 16
	.cfi_offset 4, -16
	.cfi_offset 5, -12
	.cfi_offset 6, -8
	.cfi_offset 14, -4
	.loc 10 522 0
	mov	r4, r0
	.loc 10 525 0
	ldr	r5, [r3, r2, asl #2]
.LVL994:
	.loc 10 527 0
	cmp	r5, #0
	ldmeqfd	sp!, {r4, r5, r6, pc}
	.loc 10 527 0 is_stmt 0 discriminator 1
	mov	r6, r0, asl #22
	mov	r6, r6, lsr #22
	ldr	r3, [r5, r6, asl #2]
	cmp	r3, r1
	ldmnefd	sp!, {r4, r5, r6, pc}
	.loc 10 528 0 is_stmt 1
	bl	flushSpace
.LVL995:
	.loc 10 529 0
	mov	r0, r4
	bl	invalidateASIDEntry
.LVL996:
	.loc 10 531 0
	ldr	r3, .L1121+4
	.loc 10 530 0
	mov	r2, #0
	str	r2, [r5, r6, asl #2]
	.loc 10 531 0
	ldr	r0, [r3, #0]
	.loc 10 533 0
	ldmfd	sp!, {r4, r5, r6, lr}
	.loc 10 531 0
	b	setVMRoot
.LVL997:
.L1122:
	.align	2
.L1121:
	.word	armKSASIDTable
	.word	ksCurThread
	.cfi_endproc
.LFE347:
	.size	deleteASID, .-deleteASID
	.align	2
	.global	deleteASIDPool
	.type	deleteASIDPool, %function
deleteASIDPool:
.LFB346:
	.loc 10 502 0
	.cfi_startproc
	@ args = 0, pretend = 0, frame = 0
	@ frame_needed = 0, uses_anonymous_args = 0
.LVL998:
	stmfd	sp!, {r3, r4, r5, r6, r7, r8, sl, lr}
.LCFI169:
	.cfi_def_cfa_offset 32
	.cfi_offset 3, -32
	.cfi_offset 4, -28
	.cfi_offset 5, -24
	.cfi_offset 6, -20
	.cfi_offset 7, -16
	.cfi_offset 8, -12
	.cfi_offset 10, -8
	.cfi_offset 14, -4
	.loc 10 506 0
	mov	r4, r0, asl #22
	.loc 10 502 0
	mov	r7, r0
	.loc 10 506 0
	movs	r4, r4, lsr #22
	bne	.L1132
	.loc 10 508 0
	ldr	r8, .L1133
	mov	sl, r0, lsr #10
	ldr	r6, [r8, sl, asl #2]
	cmp	r6, r1
	ldmnefd	sp!, {r3, r4, r5, r6, r7, r8, sl, pc}
	.loc 10 501 0
	sub	r6, r6, #4
.LVL999:
.L1127:
	.loc 10 510 0
	ldr	r3, [r6, #4]!
	cmp	r3, #0
	beq	.L1126
	.loc 10 501 0
	add	r5, r4, r7
	.loc 10 511 0
	mov	r0, r5
	bl	flushSpace
.LVL1000:
	.loc 10 512 0
	mov	r0, r5
	bl	invalidateASIDEntry
.LVL1001:
.L1126:
	.loc 10 509 0
	add	r4, r4, #1
.LVL1002:
	cmp	r4, #1024
	bne	.L1127
	.loc 10 516 0
	ldr	r3, .L1133+4
	.loc 10 515 0
	mov	r2, #0
	str	r2, [r8, sl, asl #2]
	.loc 10 516 0
	ldr	r0, [r3, #0]
	.loc 10 518 0
	ldmfd	sp!, {r3, r4, r5, r6, r7, r8, sl, lr}
	.loc 10 516 0
	b	setVMRoot
.LVL1003:
.L1132:
.LBB3997:
.LBB3998:
	.loc 10 506 0
	ldr	r0, .L1133+8
.LVL1004:
	ldr	r1, .L1133+12
.LVL1005:
	ldr	r2, .L1133+16
	ldr	r3, .L1133+20
	bl	_assert_fail
.LVL1006:
.L1134:
	.align	2
.L1133:
	.word	armKSASIDTable
	.word	ksCurThread
	.word	.LC84
	.word	.LC64
	.word	506
	.word	.LANCHOR3+3316
.LBE3998:
.LBE3997:
	.cfi_endproc
.LFE346:
	.size	deleteASIDPool, .-deleteASIDPool
	.align	2
	.type	emptySlot, %function
emptySlot:
.LFB549:
	.file 34 "/home/zj/seL4/myseL4/kernel/src/object/cnode.c"
	.loc 34 592 0
	.cfi_startproc
	@ args = 0, pretend = 0, frame = 24
	@ frame_needed = 0, uses_anonymous_args = 0
	@ link register save eliminated.
.LVL1007:
.LBB4028:
.LBB4029:
	.loc 34 593 0
	ldr	r2, [r0, #0]
.LVL1008:
.LBE4029:
.LBE4028:
	.loc 34 592 0
	stmfd	sp!, {r4, r5, r6}
.LCFI170:
	.cfi_def_cfa_offset 12
	.cfi_offset 4, -12
	.cfi_offset 5, -8
	.cfi_offset 6, -4
	mov	r4, r1
.LBB4076:
.LBB4077:
	.loc 25 777 0
	and	r1, r2, #14
.LVL1009:
	cmp	r1, #14
	.loc 25 778 0
	andne	r2, r2, #15
.LVL1010:
	.loc 25 779 0
	uxtbeq	r2, r2
.LBE4077:
.LBE4076:
	.loc 34 593 0
	cmp	r2, #0
	.loc 34 592 0
	sub	sp, sp, #28
.LCFI171:
	.cfi_def_cfa_offset 40
	.loc 34 592 0
	mov	r3, r0
	.loc 34 593 0
	beq	.L1135
.LVL1011:
.LBB4078:
.LBB4070:
	.loc 34 597 0
	add	ip, r0, #8
	ldmia	ip, {r0, r1}
.LVL1012:
	stmia	sp, {r0, r1}
.LBB4030:
.LBB4031:
	.loc 25 374 0
	mov	r1, r0
.LVL1013:
.LBE4031:
.LBE4030:
	.loc 34 601 0
	bics	r1, r1, #7
.LVL1014:
.LBE4070:
	.loc 30 19 0
	ldr	r0, [sp, #4]
.LBB4071:
.LBB4032:
.LBB4033:
	.loc 25 324 0
	ldrne	r5, [r1, #12]
.LBE4033:
.LBE4032:
.LBB4035:
.LBB4036:
	.loc 25 317 0
	bic	r2, r0, #7
.LVL1015:
.LBE4036:
.LBE4035:
.LBB4037:
.LBB4034:
	.loc 25 324 0
	andne	r5, r5, #7
	.loc 25 325 0
	orrne	r5, r5, r2
	strne	r5, [r1, #12]
.LBE4034:
.LBE4037:
	.loc 34 604 0
	cmp	r2, #0
	beq	.L1140
.LVL1016:
.LBE4071:
	.loc 34 609 0
	ldr	r5, [r2, #12]
.LBB4072:
.LBB4038:
.LBB4039:
	.loc 25 390 0
	ldr	r6, [r2, #8]
.LBE4039:
.LBE4038:
	.loc 34 609 0
	tst	r5, #1
.LBB4043:
.LBB4040:
	.loc 25 390 0
	and	r6, r6, #7
.LBE4040:
.LBE4043:
.LBB4044:
.LBB4045:
	.loc 25 352 0
	andeq	r0, r0, #1
.LBE4045:
.LBE4044:
	.loc 34 609 0
	movne	r0, #1
.LBB4046:
.LBB4047:
	.loc 25 368 0
	bic	r5, r5, #1
.LBE4047:
.LBE4046:
.LBB4050:
.LBB4041:
	.loc 25 391 0
	orr	r1, r6, r1
.LVL1017:
.LBE4041:
.LBE4050:
.LBB4051:
.LBB4048:
	.loc 25 369 0
	orr	r5, r0, r5
.LBE4048:
.LBE4051:
.LBB4052:
.LBB4042:
	.loc 25 391 0
	str	r1, [r2, #8]
.LVL1018:
.LBE4042:
.LBE4052:
.LBB4053:
.LBB4049:
	.loc 25 369 0
	str	r5, [r2, #12]
.LVL1019:
.L1140:
.LBE4049:
.LBE4053:
.LBE4072:
	.loc 34 611 0
	add	r1, sp, #8
.LBB4073:
.LBB4054:
	.loc 25 800 0
	mov	r2, #0
.LVL1020:
	str	r2, [sp, #8]
	str	r2, [sp, #12]
.LBE4054:
.LBE4073:
	.loc 34 611 0
	ldmia	r1, {r0, r1}
.LBB4074:
	.loc 34 614 0
	cmp	r4, #255
.LBB4055:
	.loc 25 312 0
	str	r2, [sp, #16]
.LBE4055:
.LBE4074:
	.loc 34 611 0
	stmia	r3, {r0, r1}
.LVL1021:
.LBB4075:
.LBB4056:
	.loc 34 612 0
	add	r3, sp, #24
.LVL1022:
	.loc 25 312 0
	str	r2, [sp, #20]
	.loc 34 612 0
	ldmdb	r3, {r0, r1}
.LBE4056:
.LBB4057:
.LBB4058:
.LBB4059:
.LBB4060:
.LBB4061:
	.loc 13 171 0
	ldrne	r3, .L1156
.LBE4061:
.LBE4060:
.LBE4059:
.LBE4058:
.LBE4057:
.LBB4068:
	.loc 34 612 0
	stmia	ip, {r0, r1}
.LVL1023:
.LBE4068:
.LBB4069:
.LBB4067:
.LBB4066:
.LBB4064:
.LBB4062:
	.loc 13 171 0
	ldrne	r3, [r3, #0]
.LBE4062:
.LBE4064:
	.file 35 "/home/zj/seL4/myseL4/kernel/src/object/interrupt.c"
	.loc 35 263 0
	ldrne	r1, .L1156+4
	strne	r2, [r1, r4, asl #2]
.LVL1024:
.LBB4065:
.LBB4063:
	.loc 13 171 0
	strne	r4, [r3, #12]
.LVL1025:
.L1135:
.LBE4063:
.LBE4065:
.LBE4066:
.LBE4067:
.LBE4069:
.LBE4075:
.LBE4078:
	.loc 34 618 0
	add	sp, sp, #28
	ldmfd	sp!, {r4, r5, r6}
	bx	lr
.L1157:
	.align	2
.L1156:
	.word	.LANCHOR4
	.word	intStateIRQTable
	.cfi_endproc
.LFE549:
	.size	emptySlot, .-emptySlot
	.section	.boot.text
	.align	2
	.global	write_slot
	.type	write_slot, %function
write_slot:
.LFB463:
	.loc 21 120 0
	.cfi_startproc
	@ args = 0, pretend = 0, frame = 16
	@ frame_needed = 0, uses_anonymous_args = 0
	@ link register save eliminated.
.LVL1026:
	sub	sp, sp, #16
.LCFI172:
	.cfi_def_cfa_offset 16
	.loc 21 120 0
	mov	r3, r0
	stmia	sp, {r1, r2}
	.loc 21 121 0
	ldmia	sp, {r0, r1}
.LVL1027:
.LBB4085:
	.loc 25 312 0
	mov	r1, #0
	str	r1, [sp, #8]
.LBE4085:
	.loc 21 121 0
	stmia	r3, {r0, r2}
.LVL1028:
.LBB4086:
	.loc 21 123 0
	add	r2, sp, #16
	.loc 25 312 0
	str	r1, [sp, #12]
	.loc 21 123 0
	ldmdb	r2, {r0, r1}
	add	r2, r3, #8
	stmia	r2, {r0, r1}
.LVL1029:
.LBE4086:
.LBB4087:
.LBB4088:
	.loc 25 368 0
	ldr	r2, [r3, #12]
.LVL1030:
	.loc 25 369 0
	orr	r2, r2, #3
	str	r2, [r3, #12]
.LBE4088:
.LBE4087:
	.loc 21 126 0
	add	sp, sp, #16
	bx	lr
	.cfi_endproc
.LFE463:
	.size	write_slot, .-write_slot
	.align	2
	.global	create_domain_cap
	.type	create_domain_cap, %function
create_domain_cap:
.LFB466:
	.loc 21 190 0
	.cfi_startproc
	@ args = 0, pretend = 0, frame = 24
	@ frame_needed = 0, uses_anonymous_args = 0
.LVL1031:
	stmfd	sp!, {r4, lr}
.LCFI173:
	.cfi_def_cfa_offset 8
	.cfi_offset 4, -8
	.cfi_offset 14, -4
	mov	r2, r0
	sub	sp, sp, #24
.LCFI174:
	.cfi_def_cfa_offset 32
.LVL1032:
.LBB4126:
.LBB4127:
.LBB4128:
.LBB4129:
	.loc 25 777 0
	and	ip, r2, #14
.LBE4129:
.LBE4128:
.LBE4127:
.LBE4126:
.LBB4175:
	.loc 25 1824 0
	mov	r3, #0
.LBE4175:
.LBB4176:
.LBB4170:
.LBB4132:
.LBB4130:
	.loc 25 777 0
	cmp	ip, #14
.LBE4130:
.LBE4132:
.LBE4170:
.LBE4176:
	.loc 21 190 0
	stmia	sp, {r0, r1}
	ldmia	sp, {r0, r1}
.LBB4177:
	.loc 25 1824 0
	str	r3, [sp, #12]
	add	r4, sp, #24
.LBE4177:
.LBB4178:
.LBB4171:
.LBB4133:
.LBB4131:
	.loc 25 778 0
	andne	r3, r2, #15
	.loc 25 779 0
	uxtbeq	r3, r2
.LBE4131:
.LBE4133:
.LBE4171:
.LBE4178:
.LBB4179:
	.loc 25 1824 0
	mov	lr, #62
.LBE4179:
.LBB4180:
.LBB4172:
	.loc 28 512 0
	sub	r3, r3, #1
	stmdb	r4, {r0, r1}
.LBE4172:
.LBE4180:
.LBB4181:
	.loc 25 1824 0
	str	lr, [sp, #8]
.LBE4181:
.LBB4182:
.LBB4173:
	.loc 28 512 0
	cmp	r3, #45
	ldrls	pc, [pc, r3, asl #2]
	b	.L1192
.L1173:
	.word	.L1163
	.word	.L1164
	.word	.L1163
	.word	.L1165
	.word	.L1166
	.word	.L1167
	.word	.L1168
	.word	.L1192
	.word	.L1169
	.word	.L1170
	.word	.L1192
	.word	.L1171
	.word	.L1192
	.word	.L1192
	.word	.L1192
	.word	.L1192
	.word	.L1192
	.word	.L1192
	.word	.L1192
	.word	.L1192
	.word	.L1192
	.word	.L1192
	.word	.L1192
	.word	.L1192
	.word	.L1192
	.word	.L1192
	.word	.L1192
	.word	.L1192
	.word	.L1192
	.word	.L1192
	.word	.L1192
	.word	.L1192
	.word	.L1192
	.word	.L1192
	.word	.L1192
	.word	.L1192
	.word	.L1192
	.word	.L1192
	.word	.L1192
	.word	.L1192
	.word	.L1192
	.word	.L1192
	.word	.L1192
	.word	.L1192
	.word	.L1192
	.word	.L1172
.L1163:
.LVL1033:
.LBB4134:
.LBB4135:
.LBB4136:
.LBB4137:
	.loc 25 777 0
	cmp	ip, #14
	.loc 25 778 0
	andne	r3, r2, #15
	.loc 25 779 0
	uxtbeq	r3, r2
.LBE4137:
.LBE4136:
	.loc 28 389 0
	bic	r1, r3, #2
	cmp	r1, #1
	bne	.L1196
	.loc 28 392 0
	cmp	r3, #1
	beq	.L1183
	cmp	r3, #3
	beq	.L1197
.LVL1034:
.L1192:
.LBE4135:
.LBE4134:
	.loc 28 512 0
	mov	r0, #176
.LVL1035:
.L1162:
.LBE4173:
.LBE4182:
	.loc 21 202 0
	add	r3, sp, #8
	ldmia	r3, {r1, r2}
	bl	write_slot
.LVL1036:
	.loc 21 203 0
	add	sp, sp, #24
	ldmfd	sp!, {r4, pc}
.LVL1037:
.L1164:
.LBB4183:
.LBB4174:
.LBB4143:
.LBB4144:
	.loc 25 865 0
	and	r3, r2, #15
	cmp	r3, #2
	bne	.L1198
.LVL1038:
.L1189:
.LBE4144:
.LBE4143:
.LBB4145:
.LBB4146:
	.loc 25 1519 0
	bic	r2, r2, #15
	add	r0, r2, #176
.LVL1039:
	b	.L1162
.LVL1040:
.L1165:
	ldr	r0, [sp, #20]
.LVL1041:
.LBE4146:
.LBE4145:
.LBB4148:
.LBB4149:
	.loc 25 902 0
	and	r2, r2, #15
.LVL1042:
	cmp	r2, #4
	.loc 25 905 0
	biceq	r0, r0, #15
.LVL1043:
	addeq	r0, r0, #176
	.loc 25 902 0
	beq	.L1162
	bl	cap_endpoint_cap_get_capEPPtr.part.51
.LVL1044:
.L1166:
.LBE4149:
.LBE4148:
.LBB4150:
.LBB4147:
	.loc 25 1516 0
	and	r3, r2, #15
	cmp	r3, #5
	beq	.L1189
	bl	cap_asid_pool_cap_get_capASIDPool.isra.74.part.75
.LVL1045:
.L1167:
.LBE4147:
.LBE4150:
.LBB4151:
.LBB4152:
	.loc 25 1076 0
	and	r3, r2, #15
	cmp	r3, #6
	beq	.L1189
	bl	cap_async_endpoint_cap_get_capAEPPtr.isra.56.part.57
.LVL1046:
.L1168:
.LBE4152:
.LBE4151:
.LBB4153:
.LBB4154:
	.loc 25 1623 0
	and	r3, r2, #15
	cmp	r3, #7
	.loc 25 1626 0
	biceq	r0, r2, #1020
.LVL1047:
	biceq	r0, r0, #3
	addeq	r0, r0, #176
	.loc 25 1623 0
	beq	.L1162
	bl	cap_page_table_cap_get_capPTBasePtr.isra.70.part.71
.LVL1048:
.L1169:
.LBE4154:
.LBE4153:
.LBB4155:
.LBB4156:
	.loc 25 1675 0
	and	r3, r2, #15
	cmp	r3, #9
	.loc 25 1678 0
	biceq	r0, r2, #16320
.LVL1049:
	biceq	r0, r0, #63
	addeq	r0, r0, #176
	.loc 25 1675 0
	beq	.L1162
	bl	cap_page_directory_cap_get_capPDBasePtr.isra.72.part.73
.LVL1050:
.L1170:
.LBE4156:
.LBE4155:
.LBB4157:
.LBB4158:
	.loc 25 1210 0
	and	r3, r2, #15
	cmp	r3, #10
	.loc 25 1213 0
	biceq	r2, r2, #31
	addeq	r0, r2, #176
.LVL1051:
	.loc 25 1210 0
	beq	.L1162
	bl	cap_cnode_cap_get_capCNodePtr.isra.30.part.31
.LVL1052:
.L1171:
.LBE4158:
.LBE4157:
.LBB4159:
.LBB4160:
	.loc 25 1235 0
	and	r3, r2, #15
	cmp	r3, #12
.LBE4160:
.LBE4159:
	.loc 28 526 0
	biceq	r0, r2, #508
.LVL1053:
	biceq	r0, r0, #3
	addeq	r0, r0, #176
.LBB4162:
.LBB4161:
	.loc 25 1235 0
	beq	.L1162
	bl	cap_thread_cap_get_capTCBPtr.isra.37.part.38
.LVL1054:
.L1172:
.LBE4161:
.LBE4162:
.LBB4163:
.LBB4164:
.LBB4165:
.LBB4166:
.LBB4167:
.LBB4168:
	.loc 25 1807 0
	uxtb	r3, r2
	cmp	r3, #46
	ldr	r3, [sp, #20]
.LVL1055:
	bne	.L1199
	.loc 25 1810 0
	and	r2, r2, #16128
	mov	r2, r2, lsr #8
.LBE4168:
.LBE4167:
	.loc 28 90 0
	cmp	r2, #32
	.loc 28 93 0
	andne	r2, r2, #31
	mvnne	r0, #0
.LVL1056:
	addne	r2, r2, #1
	.loc 28 90 0
	mvneq	r0, #31
.LVL1057:
	movne	r0, r0, asl r2
.LBE4166:
.LBE4165:
	.loc 28 107 0
	and	r0, r0, r3
	add	r0, r0, #176
	b	.L1162
.LVL1058:
.L1197:
.LBE4164:
.LBE4163:
.LBB4169:
.LBB4142:
.LBB4138:
.LBB4139:
	.loc 25 1480 0
	and	r3, r2, #15
	cmp	r3, #3
	.loc 25 1483 0
	biceq	r2, r2, #-268435441
	moveq	r0, r2, asl #10
.LVL1059:
	addeq	r0, r0, #176
	.loc 25 1480 0
	beq	.L1162
	bl	cap_frame_cap_get_capFBasePtr.isra.66.part.67
.LVL1060:
.L1183:
.LBE4139:
.LBE4138:
.LBB4140:
.LBB4141:
	.loc 25 1352 0
	and	r3, r2, #15
	cmp	r3, #1
	.loc 25 1355 0
	biceq	r2, r2, #-16777216
	biceq	r0, r2, #15
.LVL1061:
	moveq	r0, r0, asl #8
	addeq	r0, r0, #176
	.loc 25 1352 0
	beq	.L1162
	bl	cap_small_frame_cap_get_capFBasePtr.isra.64.part.65
.LVL1062:
.L1196:
	bl	generic_frame_cap_get_capFBasePtr.isra.68.part.69
.LVL1063:
.L1199:
	bl	cap_zombie_cap_get_capZombieType.isra.76.part.77
.LVL1064:
.L1198:
	bl	cap_untyped_cap_get_capPtr.isra.33.part.34
.LVL1065:
.LBE4141:
.LBE4140:
.LBE4142:
.LBE4169:
.LBE4174:
.LBE4183:
	.cfi_endproc
.LFE466:
	.size	create_domain_cap, .-create_domain_cap
	.section	.vectors.fastpath_reply_wait,"ax",%progbits
	.align	2
	.global	fastpath_reply_wait
	.type	fastpath_reply_wait, %function
fastpath_reply_wait:
.LFB311:
	.loc 31 321 0
	.cfi_startproc
	@ Volatile: function does not return.
	@ args = 0, pretend = 0, frame = 32
	@ frame_needed = 0, uses_anonymous_args = 0
.LVL1066:
	stmfd	sp!, {r7, fp, lr}
.LCFI175:
	.cfi_def_cfa_offset 12
	.cfi_offset 7, -12
	.cfi_offset 11, -8
	.cfi_offset 14, -4
.LBB4270:
.LBB4271:
	.loc 31 176 0
	mov	r3, r1, asl #23
.LBE4271:
.LBE4270:
	.loc 31 340 0
	ldr	fp, .L1243
.LBB4274:
.LBB4272:
	.loc 31 176 0
	mov	r3, r3, lsr #23
.LBE4272:
.LBE4274:
	.loc 31 321 0
	mov	r6, r1
.LVL1067:
	.loc 31 340 0
	ldr	ip, [fp, #0]
	.loc 31 321 0
	sub	sp, sp, #36
.LCFI176:
	.cfi_def_cfa_offset 48
.LBB4275:
.LBB4273:
	.loc 31 177 0
	add	r3, r3, #3
.LBE4273:
.LBE4275:
.LBB4276:
.LBB4277:
	.loc 25 410 0
	ldr	r5, [ip, #84]
.LBE4277:
.LBE4276:
.LBB4279:
.LBB4280:
	.loc 27 70 0
	and	r2, r6, #127
.LBE4280:
.LBE4279:
	.loc 31 344 0
	bics	r1, r3, #7
.LVL1068:
	.loc 31 321 0
	mov	sl, r0
.LBB4282:
.LBB4278:
	.loc 25 410 0
	and	r5, r5, #7
.LBE4278:
.LBE4282:
.LBB4283:
.LBB4281:
	.loc 27 70 0
	str	r2, [sp, #4]
.LVL1069:
.LBE4281:
.LBE4283:
	.loc 31 344 0
	bne	.L1202
	.loc 31 344 0 is_stmt 0 discriminator 1
	cmp	r5, #0
	bne	.L1202
	.loc 31 350 0 is_stmt 1
	bic	lr, ip, #508
	bic	lr, lr, #3
	add	r2, sp, #24
	ldmia	lr, {r0, r1}
.LVL1070:
	mov	r3, ip
.LBB4284:
.LBB4285:
.LBB4286:
.LBB4287:
	.loc 25 785 0
	and	r7, r0, #15
.LBE4287:
.LBE4286:
	.loc 31 42 0
	cmp	r7, #10
	mov	r4, r0
.LVL1071:
	stmia	r2, {r0, r1}
	ldreq	r0, [sp, #28]
.LVL1072:
	moveq	r7, r0
	bne	.L1202
.LVL1073:
.L1222:
.LBB4288:
.LBB4289:
	.loc 25 1165 0
	and	r1, r7, #260046848
.LBE4289:
.LBE4288:
.LBB4290:
.LBB4291:
	.loc 25 1185 0
	and	r8, r7, #8126464
.LBE4291:
.LBE4290:
	.loc 31 57 0
	movs	r1, r1, lsr #23
.LBB4293:
.LBB4294:
	.loc 25 1193 0
	bic	r7, r7, #-16777216
.LVL1074:
.LBE4294:
.LBE4293:
.LBB4296:
.LBB4292:
	.loc 25 1185 0
	mov	r8, r8, lsr #18
.LBE4292:
.LBE4296:
.LBB4297:
.LBB4295:
	.loc 25 1193 0
	bic	r7, r7, #16515072
.LBE4295:
.LBE4297:
	.loc 31 49 0
	mov	r9, sl, asl r5
.LVL1075:
	.loc 31 57 0
	beq	.L1207
	rsb	r0, r1, #32
	cmp	r7, r9, lsr r0
	bne	.L1202
.L1207:
.LVL1076:
	.loc 31 61 0
	mov	r9, r9, asl r1
.LVL1077:
	rsb	r0, r8, #32
.LBB4298:
.LBB4299:
	.loc 25 1213 0
	bic	r4, r4, #31
.LVL1078:
.LBE4299:
.LBE4298:
	.loc 31 61 0
	mov	r0, r9, lsr r0
.LVL1079:
	.loc 31 65 0
	add	r1, r8, r1
	.loc 31 62 0
	add	r0, r4, r0, asl #4
.LVL1080:
	.loc 31 65 0
	add	r5, r5, r1
.LVL1081:
	.loc 31 64 0
	ldmia	r0, {r0, r1}
.LVL1082:
	.loc 31 67 0
	cmp	r5, #31
	.loc 31 64 0
	stmia	r2, {r0, r1}
	mov	r4, r0
.LVL1083:
	.loc 31 67 0
	bls	.L1239
	.loc 31 69 0
	cmp	r5, #32
	bne	.L1202
	and	r7, r0, #15
.L1211:
	.loc 31 75 0
	str	r4, [sp, #24]
	ldmia	r2, {r0, r1}
	add	r2, sp, #16
.LBE4285:
.LBE4284:
	.loc 31 354 0
	cmp	r7, #4
.LBB4304:
.LBB4302:
	.loc 31 75 0
	stmia	r2, {r0, r1}
.LVL1084:
.LBE4302:
.LBE4304:
	.loc 31 354 0
	bne	.L1202
.LVL1085:
	ldr	r1, [sp, #20]
.LVL1086:
	.loc 31 354 0 is_stmt 0 discriminator 1
	tst	r1, #2
	beq	.L1202
.LVL1087:
.LBB4305:
.LBB4306:
	.loc 25 905 0 is_stmt 1
	bic	r4, r1, #15
.LVL1088:
.LBE4306:
.LBE4305:
.LBB4307:
.LBB4308:
	.loc 25 116 0
	ldr	r7, [r4, #0]
	and	r2, r7, #3
.LBE4308:
.LBE4307:
	.loc 31 363 0
	cmp	r2, #1
	beq	.L1202
	.loc 31 369 0
	ldr	r8, [lr, #48]
	.loc 31 368 0
	add	r5, lr, #48
.LVL1089:
	.loc 31 370 0
	and	r2, r8, #31
	cmp	r2, #8
	bne	.L1202
.LVL1090:
.LBB4309:
.LBB4310:
	.loc 25 1120 0
	and	r2, r8, #15
	cmp	r2, #8
	bne	.L1240
	.loc 25 1123 0
	bic	r0, r8, #31
.LBE4310:
.LBE4309:
	.loc 31 375 0
	mov	r2, r0
.LVL1091:
.LBB4311:
.LBB4312:
	.loc 25 410 0
	ldr	sl, [r0, #84]
.LVL1092:
.LBE4312:
.LBE4311:
	.loc 31 380 0
	tst	sl, #7
	bne	.L1202
	.loc 31 385 0
	bic	r8, r8, #508
.LVL1093:
	bic	r8, r8, #3
	ldr	r8, [r8, #16]
.LVL1094:
.LBB4313:
.LBB4314:
	.loc 25 1675 0
	and	sl, r8, #15
	cmp	sl, #9
	bne	.L1241
.LBE4314:
.LBE4313:
.LBB4316:
.LBB4317:
	.loc 31 163 0
	and	sl, r8, #31
.LBE4317:
.LBE4316:
	.loc 31 391 0
	cmp	sl, #25
.LBB4318:
.LBB4315:
	.loc 25 1678 0
	bic	r8, r8, #16320
.LVL1095:
	bic	r8, r8, #63
.LVL1096:
.LBE4315:
.LBE4318:
	.loc 31 391 0
	bne	.L1202
	.loc 31 399 0
	ldr	r9, [r0, #104]
	ldr	sl, [ip, #104]
	cmp	r9, sl
	.loc 31 396 0
	mov	r9, #16320
	ldr	sl, [r8, r9]
.LVL1097:
	.loc 31 399 0
	bcc	.L1202
.LVL1098:
.LBB4319:
.LBB4320:
	.loc 25 616 0
	tst	sl, #3
	bne	.L1242
.LBE4320:
.LBE4319:
	.loc 31 404 0
	tst	sl, #8388608
	beq	.L1202
.LVL1099:
.LBB4321:
.LBB4322:
	.loc 25 953 0
	and	r1, r1, #1
.LVL1100:
.LBE4322:
.LBE4321:
	.loc 31 427 0
	bics	r7, r7, #15
.LBB4323:
.LBB4324:
	.loc 31 122 0
	eor	r1, r1, #1
.LBE4324:
.LBE4323:
.LBB4326:
.LBB4327:
	.loc 31 116 0
	orr	r9, r4, #3
.LBE4327:
.LBE4326:
.LBB4329:
.LBB4325:
	.loc 31 122 0
	str	r1, [ip, #80]
.LBE4325:
.LBE4329:
.LBB4330:
.LBB4328:
	.loc 31 116 0
	str	r9, [ip, #72]
.LVL1101:
.LBE4328:
.LBE4330:
.LBB4331:
.LBB4332:
	.loc 31 151 0
	orreq	r1, ip, #2
.LBE4332:
.LBE4331:
.LBB4334:
.LBB4335:
	.loc 31 187 0
	ldr	r9, [sp, #4]
.LBE4335:
.LBE4334:
	.loc 31 437 0
	strne	ip, [r7, #128]
	.loc 31 438 0
	strne	r7, [ip, #132]
	.loc 31 439 0
	movne	r1, #0
.LBB4342:
.LBB4343:
	.loc 31 151 0
	orrne	r7, ip, #2
.LBE4343:
.LBE4342:
	.loc 31 428 0
	streq	r7, [ip, #132]
	.loc 31 429 0
	streq	r7, [ip, #128]
.LVL1102:
	.loc 31 439 0
	strne	r1, [ip, #128]
.LVL1103:
.LBB4345:
.LBB4333:
	.loc 31 151 0
	stmeqia	r4, {r1, ip}
.LBE4333:
.LBE4345:
.LBB4346:
.LBB4344:
	strne	r7, [r4, #0]
.LVL1104:
.LBE4344:
.LBE4346:
.LBB4347:
.LBB4340:
	.loc 31 187 0
	cmp	r9, #0
.LBE4340:
.LBE4347:
.LBB4348:
.LBB4349:
	.loc 25 374 0
	ldr	r4, [r5, #8]
.LVL1105:
.LBE4349:
.LBE4348:
.LBB4351:
.LBB4352:
.LBB4353:
.LBB4354:
	.loc 31 320 0
	ldrne	r9, [sp, #4]
.LBE4354:
.LBE4353:
.LBE4352:
.LBE4351:
.LBB4377:
.LBB4350:
	.loc 25 374 0
	bic	r4, r4, #7
.LBE4350:
.LBE4377:
.LBB4378:
.LBB4379:
	.loc 31 450 0
	mov	r1, #0
	.loc 31 130 0
	mov	r7, #3
	str	r7, [r4, #12]
.LVL1106:
.LBE4379:
.LBE4378:
.LBB4381:
.LBB4375:
.LBB4358:
.LBB4355:
	.loc 31 320 0
	addne	ip, ip, r9, asl #2
.LBE4355:
.LBE4358:
.LBE4375:
.LBE4381:
.LBB4382:
.LBB4380:
	.loc 31 450 0
	str	r1, [lr, #48]
	str	r1, [r5, #4]
.LVL1107:
	.loc 31 451 0
	str	r1, [r5, #8]
	str	r1, [r5, #12]
.LVL1108:
.LBE4380:
.LBE4382:
.LBB4383:
.LBB4341:
	.loc 31 187 0
	beq	.L1221
.LVL1109:
.L1220:
.LBB4336:
.LBB4337:
	.loc 9 27 0
	ldr	r1, [r3, #8]
.LVL1110:
	add	r3, r3, #4
.LBE4337:
.LBE4336:
	.loc 31 187 0
	cmp	r3, ip
.LBB4338:
.LBB4339:
	.loc 9 21 0
	str	r1, [r0, #8]
	add	r0, r0, #4
.LBE4339:
.LBE4338:
	.loc 31 187 0
	bne	.L1220
.LVL1111:
.L1221:
.LBE4341:
.LBE4383:
.LBB4384:
.LBB4385:
	.loc 31 108 0
	mov	r3, #1
	str	r3, [r2, #72]
.LVL1112:
.LBE4385:
.LBE4384:
.LBB4386:
.LBB4376:
.LBB4359:
.LBB4356:
	.loc 25 608 0
	mov	r3, #0
.LBE4356:
.LBE4359:
.LBB4360:
.LBB4361:
.LBB4362:
	.loc 32 27 0
#APP
@ 27 "/home/zj/seL4/myseL4/kernel/include/arch/arm/armv/armv6/armv/fastpath.h" 1
	mcr p15, 0, r3, c7, c10, 4
	
@ 0 "" 2
.LVL1113:
.LBE4362:
.LBE4361:
.LBB4363:
.LBB4364:
	.loc 11 39 0
	add	r8, r8, #-1879048192
.LVL1114:
.LBE4364:
.LBE4363:
.LBB4365:
.LBB4366:
	.loc 32 43 0
	orr	r8, r8, #24
.LVL1115:
	.loc 32 40 0
#APP
@ 40 "/home/zj/seL4/myseL4/kernel/include/arch/arm/armv/armv6/armv/fastpath.h" 1
	mcr p15, 0, r8, c2, c0, 0
	
@ 0 "" 2
.LVL1116:
.LBE4366:
.LBE4365:
.LBE4360:
.LBB4369:
.LBB4357:
	.loc 25 611 0
	mov	sl, sl, lsr #24
.LVL1117:
.LBE4357:
.LBE4369:
.LBB4370:
.LBB4367:
.LBB4368:
	.loc 32 52 0
#APP
@ 52 "/home/zj/seL4/myseL4/kernel/include/arch/arm/armv/armv6/armv/fastpath.h" 1
	mcr p15, 0, sl, c13, c0, 1
	mcr p15, 0, r3, c7, c5, 6
	
@ 0 "" 2
.LBE4368:
.LBE4367:
.LBE4370:
	.loc 31 100 0
	ldr	r3, .L1243+4
	ldr	r1, [r2, #116]
.LBB4371:
.LBB4372:
	.loc 31 84 0
	mov	r0, #0
.LBE4372:
.LBE4371:
	.loc 31 100 0
	str	r1, [r3, #0]
	.loc 31 101 0
	str	r2, [fp, #0]
.LVL1118:
.LBB4374:
.LBB4373:
	.loc 31 87 0
	add	r1, sp, #12
	.loc 31 84 0
	mov	r3, r0
#APP
@ 84 "/home/zj/seL4/myseL4/kernel/src/arch/arm/fastpath/fastpath.c" 1
	strex r3, r1, [r1]
@ 0 "" 2
.LVL1119:
.LBE4373:
.LBE4374:
.LBE4376:
.LBE4386:
	.loc 31 466 0
	bic	r1, r6, #3584
.LVL1120:
	bl	fastpath_restore
.LVL1121:
.L1202:
	.loc 31 346 0
	mvn	r0, #1
	bl	slowpath
.LVL1122:
.L1242:
	bl	pde_pde_invalid_get_stored_asid_valid.part.157
.LVL1123:
.L1241:
	bl	cap_page_directory_cap_get_capPDBasePtr.isra.72.part.73
.LVL1124:
.L1240:
	bl	cap_reply_cap_get_capTCBPtr.isra.42.part.43
.LVL1125:
.L1239:
.LBB4387:
.LBB4303:
.LBB4300:
.LBB4301:
	.loc 25 785 0
	and	r7, r0, #15
.LBE4301:
.LBE4300:
	.loc 31 67 0
	cmp	r7, #10
	bne	.L1211
.LVL1126:
	ldr	r7, [sp, #28]
.LVL1127:
	b	.L1222
.L1244:
	.align	2
.L1243:
	.word	ksCurThread
	.word	.LANCHOR0
.LBE4303:
.LBE4387:
	.cfi_endproc
.LFE311:
	.size	fastpath_reply_wait, .-fastpath_reply_wait
	.text
	.align	2
	.global	doAsyncTransfer
	.type	doAsyncTransfer, %function
doAsyncTransfer:
.LFB504:
	.loc 22 264 0
	.cfi_startproc
	@ args = 0, pretend = 0, frame = 0
	@ frame_needed = 0, uses_anonymous_args = 0
	@ link register save eliminated.
.LVL1128:
.LBB4398:
.LBB4399:
	.loc 9 21 0
	mov	r3, #1
.LBE4399:
.LBE4398:
.LBB4401:
.LBB4402:
	str	r1, [r2, #8]
.LVL1129:
.LBE4402:
.LBE4401:
.LBB4403:
.LBB4400:
	stmia	r2, {r0, r3}
	bx	lr
.LBE4400:
.LBE4403:
	.cfi_endproc
.LFE504:
	.size	doAsyncTransfer, .-doAsyncTransfer
	.align	2
	.global	performPageInvocationMapPTE
	.type	performPageInvocationMapPTE, %function
performPageInvocationMapPTE:
.LFB382:
	.loc 10 2078 0
	.cfi_startproc
	@ args = 12, pretend = 0, frame = 8
	@ frame_needed = 0, uses_anonymous_args = 0
.LVL1130:
	stmfd	sp!, {r4, r5, r6, lr}
.LCFI177:
	.cfi_def_cfa_offset 16
	.cfi_offset 4, -16
	.cfi_offset 5, -12
	.cfi_offset 6, -8
	.cfi_offset 14, -4
	sub	sp, sp, #8
.LCFI178:
	.cfi_def_cfa_offset 24
	.loc 10 2078 0
	mov	r5, r0
	ldr	r4, [sp, #28]
.LVL1131:
	stmia	sp, {r1, r2}
	.loc 10 2082 0
	ldmia	sp, {r0, r1}
.LVL1132:
.LBB4418:
.LBB4419:
.LBB4420:
.LBB4421:
.LBB4422:
	.loc 25 1845 0
	ldr	r6, [r4, #0]
.LBE4422:
.LBE4421:
.LBE4420:
.LBE4419:
.LBE4418:
	.loc 10 2082 0
	stmia	r3, {r0, r2}
.LBB4429:
.LBB4427:
.LBB4425:
.LBB4424:
.LBB4423:
	.loc 25 1845 0
	mov	r1, r6, lsr #1
.LBE4423:
.LBE4424:
	.loc 28 595 0
	ands	ip, r1, #1
	ldr	r3, [sp, #32]
.LVL1133:
.LBE4425:
.LBE4427:
.LBE4429:
	.loc 10 2078 0
	ldr	r1, [sp, #24]
.LBB4430:
.LBB4428:
.LBB4426:
	.loc 28 596 0
	movne	r0, ip
	.loc 28 595 0
	bne	.L1247
.LVL1134:
	.loc 28 598 0
	tst	r6, #1
	moveq	r0, #2
	movne	r0, #0
.LVL1135:
.L1247:
.LBE4426:
.LBE4428:
.LBE4430:
	.loc 10 2088 0
	cmp	r3, #0
	movne	r2, r4
.LBB4431:
.LBB4432:
	.loc 10 2076 0
	addne	ip, r4, r3, asl #2
.LBE4432:
.LBE4431:
	.loc 10 2088 0
	beq	.L1252
.LVL1136:
.L1251:
	.loc 10 2089 0 discriminator 2
	str	r1, [r2], #4
	.loc 10 2088 0 discriminator 2
	cmp	r2, ip
	bne	.L1251
.L1252:
.LVL1137:
	.loc 10 2092 0
	add	r1, r4, r3, asl #2
	.loc 10 2091 0
	sub	r1, r1, #1
.LBB4442:
.LBB4441:
	.loc 12 77 0
	mov	r3, r4, lsr #5
.LVL1138:
	mov	r1, r1, lsr #5
	add	r1, r1, #1
	cmp	r3, r1
.LBB4433:
.LBB4434:
.LBB4435:
.LBB4436:
	.loc 5 25 0
	movcc	ip, #0
.LBE4436:
.LBE4435:
.LBE4434:
.LBE4433:
	.loc 12 77 0
	bcs	.L1250
.L1257:
.LVL1139:
	.loc 12 78 0
	mov	r2, r3, asl #5
.LBB4440:
.LBB4439:
	.loc 6 201 0
#APP
@ 201 "/home/zj/seL4/myseL4/kernel/include/arch/arm/arch/machine.h" 1
	mcr p15, 0, r2, c7, c10, 1
@ 0 "" 2
.LBB4438:
.LBB4437:
	.loc 5 25 0
#APP
@ 25 "/home/zj/seL4/myseL4/kernel/include/arch/arm/armv/armv6/armv/machine.h" 1
	mcr p15, 0, ip, c7, c10, 5
@ 0 "" 2
.LBE4437:
.LBE4438:
.LBE4439:
.LBE4440:
	.loc 12 77 0
	add	r3, r3, #1
	cmp	r3, r1
	bne	.L1257
.LVL1140:
.L1250:
.LBE4441:
.LBE4442:
	.loc 10 2094 0
	cmp	r0, #2
	bne	.L1260
.LVL1141:
.L1254:
	.loc 10 2099 0
	mov	r0, #0
	add	sp, sp, #8
	ldmfd	sp!, {r4, r5, r6, pc}
.LVL1142:
.L1260:
	.loc 10 2095 0
	mov	r0, r5
	bl	invalidateTLBByASID
.LVL1143:
	b	.L1254
	.cfi_endproc
.LFE382:
	.size	performPageInvocationMapPTE, .-performPageInvocationMapPTE
	.align	2
	.global	performPageInvocationRemapPTE
	.type	performPageInvocationRemapPTE, %function
performPageInvocationRemapPTE:
.LFB384:
	.loc 10 2129 0
	.cfi_startproc
	@ args = 0, pretend = 0, frame = 8
	@ frame_needed = 0, uses_anonymous_args = 0
.LVL1144:
	stmfd	sp!, {r4, r5, lr}
.LCFI179:
	.cfi_def_cfa_offset 12
	.cfi_offset 4, -12
	.cfi_offset 5, -8
	.cfi_offset 14, -4
	sub	sp, sp, #12
.LCFI180:
	.cfi_def_cfa_offset 24
	.loc 10 2129 0
	add	ip, sp, #8
	stmdb	ip, {r2, r3}
	ldr	r3, [sp, #0]
.LVL1145:
	ldr	r4, [sp, #4]
.LVL1146:
.LBB4457:
.LBB4458:
.LBB4459:
.LBB4460:
.LBB4461:
	.loc 25 1845 0
	ldr	ip, [r3, #0]
	mov	r2, ip, lsr #1
.LBE4461:
.LBE4460:
	.loc 28 595 0
	ands	r5, r2, #1
	bne	.L1262
.LVL1147:
	.loc 28 598 0
	tst	ip, #1
	moveq	r5, #2
	movne	r5, #0
.LVL1148:
.L1262:
.LBE4459:
.LBE4458:
.LBE4457:
	.loc 10 2137 0
	cmp	r4, #0
	movne	r2, r3
.LBB4462:
.LBB4463:
	.loc 10 2128 0
	addne	ip, r3, r4, asl #2
.LBE4463:
.LBE4462:
	.loc 10 2137 0
	beq	.L1267
.LVL1149:
.L1266:
	.loc 10 2138 0 discriminator 2
	str	r1, [r2], #4
	.loc 10 2137 0 discriminator 2
	cmp	r2, ip
	bne	.L1266
.L1267:
.LVL1150:
	.loc 10 2141 0
	add	r1, r3, r4, asl #2
.LVL1151:
	.loc 10 2140 0
	sub	r1, r1, #1
.LBB4473:
.LBB4472:
	.loc 12 77 0
	mov	r3, r3, lsr #5
.LVL1152:
	mov	r1, r1, lsr #5
	add	r1, r1, #1
	cmp	r3, r1
.LBB4464:
.LBB4465:
.LBB4466:
.LBB4467:
	.loc 5 25 0
	movcc	ip, #0
.LBE4467:
.LBE4466:
.LBE4465:
.LBE4464:
	.loc 12 77 0
	bcs	.L1265
.L1272:
.LVL1153:
	.loc 12 78 0
	mov	r2, r3, asl #5
.LBB4471:
.LBB4470:
	.loc 6 201 0
#APP
@ 201 "/home/zj/seL4/myseL4/kernel/include/arch/arm/arch/machine.h" 1
	mcr p15, 0, r2, c7, c10, 1
@ 0 "" 2
.LBB4469:
.LBB4468:
	.loc 5 25 0
#APP
@ 25 "/home/zj/seL4/myseL4/kernel/include/arch/arm/armv/armv6/armv/machine.h" 1
	mcr p15, 0, ip, c7, c10, 5
@ 0 "" 2
.LBE4468:
.LBE4469:
.LBE4470:
.LBE4471:
	.loc 12 77 0
	add	r3, r3, #1
	cmp	r3, r1
	bne	.L1272
.LVL1154:
.L1265:
.LBE4472:
.LBE4473:
	.loc 10 2143 0
	cmp	r5, #2
	bne	.L1275
.LVL1155:
.L1269:
	.loc 10 2148 0
	mov	r0, #0
	add	sp, sp, #12
	ldmfd	sp!, {r4, r5, pc}
.LVL1156:
.L1275:
	.loc 10 2144 0
	bl	invalidateTLBByASID
.LVL1157:
	b	.L1269
	.cfi_endproc
.LFE384:
	.size	performPageInvocationRemapPTE, .-performPageInvocationRemapPTE
	.section	.boot.text
	.align	2
	.type	create_it_frame_cap, %function
create_it_frame_cap:
.LFB316:
	.loc 33 143 0
	.cfi_startproc
	@ args = 4, pretend = 0, frame = 0
	@ frame_needed = 0, uses_anonymous_args = 0
.LVL1158:
	stmfd	sp!, {r4, lr}
.LCFI181:
	.cfi_def_cfa_offset 8
	.cfi_offset 4, -8
	.cfi_offset 14, -4
	.loc 33 143 0
	ldr	ip, [sp, #8]
	.loc 33 144 0
	cmp	ip, #0
	bne	.L1283
.LVL1159:
	.loc 33 160 0
	mov	ip, r3, lsr #10
.LBB4484:
.LBB4485:
	.loc 25 1255 0
	movs	r4, r2, asl #20
.LBE4485:
.LBE4484:
	.loc 33 156 0
	uxtb	ip, ip
.LVL1160:
.LBB4489:
.LBB4486:
	.loc 25 1250 0
	mov	r3, r3, asl #22
.LVL1161:
	.loc 25 1255 0
	bne	.L1284
	.loc 25 1253 0
	orr	r3, r3, r2, lsr #12
.LVL1162:
	.loc 25 1261 0
	movs	r2, r1, asl #20
.LVL1163:
	.loc 25 1256 0
	orr	r3, r3, #3145728
.LVL1164:
	.loc 25 1259 0
	mov	ip, ip, asl #24
.LVL1165:
	.loc 25 1261 0
	bne	.L1285
.LVL1166:
	.loc 25 1262 0
	bic	r1, r1, #4080
.LVL1167:
.LBE4486:
	.loc 25 1267 0
	str	r3, [r0, #4]
.LBB4487:
	.loc 25 1262 0
	orr	ip, ip, r1, lsr #8
.LVL1168:
	.loc 25 1265 0
	orr	ip, ip, #1
.LBE4487:
	.loc 25 1267 0
	str	ip, [r0, #0]
.LBE4489:
	.loc 33 163 0
	ldmfd	sp!, {r4, pc}
.LVL1169:
.L1283:
.LBB4490:
.LBB4491:
.LBB4492:
.LBB4493:
	.loc 25 1370 0
	mov	ip, r3, asl #22
	.loc 25 1375 0
	movs	r4, r2, asl #18
	.loc 25 1370 0
	mov	ip, ip, lsr #2
.LBE4493:
.LBE4492:
	.loc 33 151 0
	mov	r3, r3, lsr #10
.LVL1170:
.LBB4497:
.LBB4494:
	.loc 25 1375 0
	bne	.L1286
	.loc 25 1376 0
	mov	r2, r2, lsr #14
.LVL1171:
	.loc 25 1373 0
	orr	r2, r2, #-2147483648
	.loc 25 1379 0
	uxtb	r3, r3
.LVL1172:
	.loc 25 1373 0
	orr	r2, r2, #786432
	.loc 25 1381 0
	movs	r4, r1, asl #18
	.loc 25 1376 0
	orr	ip, r2, ip
.LVL1173:
	.loc 25 1379 0
	mov	r3, r3, asl #22
.LVL1174:
	.loc 25 1381 0
	bne	.L1287
.LVL1175:
	.loc 25 1382 0
	bic	r1, r1, #16320
.LVL1176:
.LBE4494:
	.loc 25 1387 0
	str	ip, [r0, #4]
.LBB4495:
	.loc 25 1382 0
	orr	r1, r3, r1, lsr #10
	.loc 25 1385 0
	orr	r1, r1, #3
.LBE4495:
	.loc 25 1387 0
	str	r1, [r0, #0]
	ldmfd	sp!, {r4, pc}
.LVL1177:
.L1286:
.LBB4496:
	.loc 25 1375 0
	ldr	r0, .L1288
.LVL1178:
	ldr	r1, .L1288+4
.LVL1179:
	ldr	r2, .L1288+8
.LVL1180:
	ldr	r3, .L1288+12
.LVL1181:
	bl	_assert_fail
.LVL1182:
.L1287:
	.loc 25 1381 0
	ldr	r0, .L1288+16
.LVL1183:
	ldr	r1, .L1288+4
.LVL1184:
	ldr	r2, .L1288+20
	ldr	r3, .L1288+12
.LVL1185:
	bl	_assert_fail
.LVL1186:
.L1285:
.LBE4496:
.LBE4497:
.LBE4491:
.LBE4490:
.LBB4498:
.LBB4488:
	.loc 25 1261 0
	ldr	r0, .L1288+24
.LVL1187:
	ldr	r1, .L1288+4
.LVL1188:
	ldr	r2, .L1288+28
	ldr	r3, .L1288+32
.LVL1189:
	bl	_assert_fail
.LVL1190:
.L1284:
	.loc 25 1255 0
	ldr	r0, .L1288+36
.LVL1191:
	ldr	r1, .L1288+4
.LVL1192:
	ldr	r2, .L1288+40
.LVL1193:
	ldr	r3, .L1288+32
.LVL1194:
	bl	_assert_fail
.LVL1195:
.L1289:
	.align	2
.L1288:
	.word	.LC85
	.word	.LC5
	.word	1375
	.word	.LANCHOR3+3332
	.word	.LC86
	.word	1381
	.word	.LC88
	.word	1261
	.word	.LANCHOR3+3352
	.word	.LC87
	.word	1255
.LBE4488:
.LBE4498:
	.cfi_endproc
.LFE316:
	.size	create_it_frame_cap, .-create_it_frame_cap
	.align	2
	.global	create_unmapped_it_frame_cap
	.type	create_unmapped_it_frame_cap, %function
create_unmapped_it_frame_cap:
.LFB317:
	.loc 33 167 0
	.cfi_startproc
	@ args = 0, pretend = 0, frame = 0
	@ frame_needed = 0, uses_anonymous_args = 0
.LVL1196:
	stmfd	sp!, {r4, lr}
.LCFI182:
	.cfi_def_cfa_offset 8
	.cfi_offset 4, -8
	.cfi_offset 14, -4
	sub	sp, sp, #8
.LCFI183:
	.cfi_def_cfa_offset 16
	.loc 33 167 0
	mov	r4, r0
	.loc 33 168 0
	str	r2, [sp, #0]
	mov	r2, #0
.LVL1197:
	mov	r3, r2
	bl	create_it_frame_cap
.LVL1198:
	.loc 33 169 0
	mov	r0, r4
	add	sp, sp, #8
	ldmfd	sp!, {r4, pc}
	.cfi_endproc
.LFE317:
	.size	create_unmapped_it_frame_cap, .-create_unmapped_it_frame_cap
	.text
	.align	2
	.type	resetMemMapping, %function
resetMemMapping:
.LFB443:
	.loc 19 155 0
	.cfi_startproc
	@ args = 0, pretend = 0, frame = 16
	@ frame_needed = 0, uses_anonymous_args = 0
.LVL1199:
	stmfd	sp!, {r4, lr}
.LCFI184:
	.cfi_def_cfa_offset 8
	.cfi_offset 4, -8
	.cfi_offset 14, -4
	sub	sp, sp, #16
.LCFI185:
	.cfi_def_cfa_offset 24
	.loc 19 155 0
	mov	r3, r0
	stmia	sp, {r1, r2}
	mov	r2, r1
.LVL1200:
.LBB4517:
.LBB4518:
	.loc 25 777 0
	and	r1, r1, #14
.LVL1201:
	cmp	r1, #14
	.loc 25 778 0
	andne	r1, r2, #15
	.loc 25 779 0
	uxtbeq	r1, r2
.LBE4518:
.LBE4517:
	.loc 19 156 0
	sub	r1, r1, #1
	cmp	r1, #8
	ldrls	pc, [pc, r1, asl #2]
	b	.L1294
.L1299:
	.word	.L1295
	.word	.L1294
	.word	.L1296
	.word	.L1294
	.word	.L1294
	.word	.L1294
	.word	.L1297
	.word	.L1294
	.word	.L1298
.L1298:
	ldmia	sp, {r0, r1}
.LVL1202:
	add	ip, sp, #8
.LBB4519:
.LBB4520:
	.loc 25 1691 0
	and	r4, r2, #15
	cmp	r4, #9
	stmia	ip, {r0, r1}
.LVL1203:
	bne	.L1305
.LVL1204:
	.loc 25 1696 0
	bic	r2, r2, #16
.LVL1205:
	.loc 25 1698 0
	str	r2, [sp, #8]
	ldmia	ip, {r0, r1}
	stmia	r3, {r0, r1}
.LVL1206:
.L1291:
.LBE4520:
.LBE4519:
	.loc 19 170 0
	mov	r0, r3
	add	sp, sp, #16
	ldmfd	sp!, {r4, pc}
.LVL1207:
.L1297:
.LBB4522:
.LBB4523:
	.loc 25 1558 0
	and	r1, r2, #15
	cmp	r1, #7
	ldr	r1, [sp, #4]
.LVL1208:
	.loc 25 1565 0
	streq	r2, [r0, #0]
	.loc 25 1563 0
	biceq	r1, r1, #1073741824
.LVL1209:
	.loc 25 1565 0
	streq	r1, [r0, #4]
	.loc 25 1558 0
	beq	.L1291
	bl	cap_page_table_cap_set_capPTIsMapped.part.136
.LVL1210:
.L1296:
.LBE4523:
.LBE4522:
.LBB4524:
.LBB4525:
.LBB4526:
	.loc 25 1408 0
	and	r1, r2, #15
	cmp	r1, #3
	ldr	r1, [sp, #4]
.LVL1211:
	bne	.L1306
.LVL1212:
	.loc 25 1413 0
	bic	r1, r1, #1069547520
.LVL1213:
	bic	r1, r1, #3145728
.LBE4526:
.LBE4525:
.LBB4529:
.LBB4530:
	.loc 25 1473 0
	bic	r2, r2, #1069547520
.LVL1214:
.LBE4530:
.LBE4529:
.LBB4531:
.LBB4527:
	.loc 25 1475 0
	str	r1, [r0, #4]
	str	r2, [r0, #0]
	b	.L1291
.LVL1215:
.L1295:
.LBE4527:
.LBE4531:
.LBE4524:
.LBB4533:
.LBB4534:
.LBB4535:
	.loc 25 1280 0
	and	r1, r2, #15
	cmp	r1, #1
	ldr	r1, [sp, #4]
.LVL1216:
	bne	.L1307
.LVL1217:
	.loc 25 1285 0
	bic	r1, r1, #-16777216
.LVL1218:
	bic	r1, r1, #12582912
.LBE4535:
.LBE4534:
.LBB4538:
.LBB4539:
	.loc 25 1345 0
	bic	r2, r2, #-16777216
.LVL1219:
.LBE4539:
.LBE4538:
.LBB4540:
.LBB4536:
	.loc 25 1347 0
	str	r1, [r0, #4]
	str	r2, [r0, #0]
	b	.L1291
.LVL1220:
.L1294:
.LBE4536:
.LBE4540:
.LBE4533:
	.loc 19 169 0
	ldmia	sp, {r0, r1}
.LVL1221:
	stmia	r3, {r0, r1}
	b	.L1291
.LVL1222:
.L1307:
.LBB4542:
.LBB4541:
.LBB4537:
	.loc 25 1280 0
	ldr	r0, .L1308
.LVL1223:
	ldr	r1, .L1308+4
.LVL1224:
	ldr	r2, .L1308+8
.LVL1225:
	ldr	r3, .L1308+12
.LVL1226:
	bl	_assert_fail
.LVL1227:
.L1306:
.LBE4537:
.LBE4541:
.LBE4542:
.LBB4543:
.LBB4532:
.LBB4528:
	.loc 25 1408 0
	ldr	r0, .L1308+16
.LVL1228:
	ldr	r1, .L1308+4
.LVL1229:
	ldr	r2, .L1308+20
.LVL1230:
	ldr	r3, .L1308+24
.LVL1231:
	bl	_assert_fail
.LVL1232:
.L1305:
.LBE4528:
.LBE4532:
.LBE4543:
.LBB4544:
.LBB4521:
	.loc 25 1691 0
	ldr	r0, .L1308+28
	ldr	r1, .L1308+4
	ldr	r2, .L1308+32
.LVL1233:
	ldr	r3, .L1308+36
.LVL1234:
	bl	_assert_fail
.LVL1235:
.L1309:
	.align	2
.L1308:
	.word	.LC25
	.word	.LC5
	.word	1281
	.word	.LANCHOR3+3376
	.word	.LC26
	.word	1409
	.word	.LANCHOR3+3420
	.word	.LC30
	.word	1692
	.word	.LANCHOR3+3456
.LBE4521:
.LBE4544:
	.cfi_endproc
.LFE443:
	.size	resetMemMapping, .-resetMemMapping
	.section	.boot.text
	.align	2
	.global	provide_cap
	.type	provide_cap, %function
provide_cap:
.LFB470:
	.loc 21 275 0
	.cfi_startproc
	@ args = 0, pretend = 0, frame = 24
	@ frame_needed = 0, uses_anonymous_args = 0
	stmfd	sp!, {r4, r5, r6, lr}
.LCFI186:
	.cfi_def_cfa_offset 16
	.cfi_offset 4, -16
	.cfi_offset 5, -12
	.cfi_offset 6, -8
	.cfi_offset 14, -4
	sub	sp, sp, #24
.LCFI187:
	.cfi_def_cfa_offset 40
	.loc 21 276 0
	ldr	r4, .L1353
	.loc 21 275 0
	add	ip, sp, #8
	mov	lr, sp
	.loc 21 276 0
	ldr	r5, [r4, #20]
	ldr	r6, [r4, #24]
	.loc 21 275 0
	stmia	ip, {r0, r1}
	.loc 21 276 0
	cmp	r5, r6
	.loc 21 275 0
	stmia	sp, {r2, r3}
	.loc 21 276 0
	bcs	.L1349
	ldr	r3, [sp, #8]
.LVL1236:
	ldmia	ip, {r0, r1}
	add	r2, sp, #24
.LBB4581:
.LBB4582:
.LBB4583:
.LBB4584:
	.loc 25 777 0
	and	ip, r3, #14
	cmp	ip, #14
	stmdb	r2, {r0, r1}
	.loc 25 778 0
	andne	r2, r3, #15
	.loc 25 779 0
	uxtbeq	r2, r3
.LBE4584:
.LBE4583:
	.loc 28 512 0
	sub	r2, r2, #1
	cmp	r2, #45
	ldrls	pc, [pc, r2, asl #2]
	b	.L1345
.L1326:
	.word	.L1316
	.word	.L1317
	.word	.L1316
	.word	.L1318
	.word	.L1319
	.word	.L1320
	.word	.L1321
	.word	.L1345
	.word	.L1322
	.word	.L1323
	.word	.L1345
	.word	.L1324
	.word	.L1345
	.word	.L1345
	.word	.L1345
	.word	.L1345
	.word	.L1345
	.word	.L1345
	.word	.L1345
	.word	.L1345
	.word	.L1345
	.word	.L1345
	.word	.L1345
	.word	.L1345
	.word	.L1345
	.word	.L1345
	.word	.L1345
	.word	.L1345
	.word	.L1345
	.word	.L1345
	.word	.L1345
	.word	.L1345
	.word	.L1345
	.word	.L1345
	.word	.L1345
	.word	.L1345
	.word	.L1345
	.word	.L1345
	.word	.L1345
	.word	.L1345
	.word	.L1345
	.word	.L1345
	.word	.L1345
	.word	.L1345
	.word	.L1345
	.word	.L1325
.LVL1237:
.L1349:
.LBE4582:
.LBE4581:
	.loc 21 277 0
	ldr	r0, .L1353+4
	bl	printf
.LVL1238:
	.loc 21 278 0
	mov	r0, #0
.L1312:
	.loc 21 283 0
	add	sp, sp, #24
	ldmfd	sp!, {r4, r5, r6, pc}
.LVL1239:
.L1345:
.LBB4623:
.LBB4621:
	.loc 28 550 0
	mov	r0, #0
.LVL1240:
.L1315:
.LBE4621:
.LBE4623:
	.loc 21 280 0
	add	r0, r0, r5, asl #4
	ldmia	lr, {r1, r2}
	bl	write_slot
.LVL1241:
	.loc 21 281 0
	ldr	r3, [r4, #20]
	.loc 21 282 0
	mov	r0, #1
	.loc 21 281 0
	add	r3, r3, r0
	str	r3, [r4, #20]
	.loc 21 282 0
	b	.L1312
.LVL1242:
.L1316:
.LBB4624:
.LBB4622:
.LBB4585:
.LBB4586:
.LBB4587:
.LBB4588:
	.loc 25 777 0
	cmp	ip, #14
	.loc 25 778 0
	andne	r2, r3, #15
	.loc 25 779 0
	uxtbeq	r2, r3
.LBE4588:
.LBE4587:
	.loc 28 389 0
	bic	r1, r2, #2
	cmp	r1, #1
	bne	.L1350
	.loc 28 392 0
	cmp	r2, #1
	beq	.L1336
	cmp	r2, #3
	bne	.L1345
.LVL1243:
.LBB4589:
.LBB4590:
	.loc 25 1480 0
	and	r2, r3, #15
	cmp	r2, #3
	.loc 25 1483 0
	biceq	r3, r3, #-268435441
	moveq	r0, r3, asl #10
.LVL1244:
	.loc 25 1480 0
	beq	.L1315
	bl	cap_frame_cap_get_capFBasePtr.isra.66.part.67
.LVL1245:
.L1317:
.LBE4590:
.LBE4589:
.LBE4586:
.LBE4585:
.LBB4594:
.LBB4595:
	.loc 25 865 0
	and	r2, r3, #15
	cmp	r2, #2
	bne	.L1351
.LVL1246:
.L1342:
.LBE4595:
.LBE4594:
.LBB4596:
.LBB4597:
	.loc 25 1519 0
	bic	r0, r3, #15
.LVL1247:
	b	.L1315
.LVL1248:
.L1318:
.LBE4597:
.LBE4596:
.LBB4599:
.LBB4600:
	.loc 25 902 0
	and	r3, r3, #15
	ldr	r0, [sp, #20]
.LVL1249:
	cmp	r3, #4
	.loc 25 905 0
	biceq	r0, r0, #15
.LVL1250:
	.loc 25 902 0
	beq	.L1315
	bl	cap_endpoint_cap_get_capEPPtr.part.51
.LVL1251:
.L1319:
.LBE4600:
.LBE4599:
.LBB4601:
.LBB4598:
	.loc 25 1516 0
	and	r2, r3, #15
	cmp	r2, #5
	beq	.L1342
	bl	cap_asid_pool_cap_get_capASIDPool.isra.74.part.75
.LVL1252:
.L1320:
.LBE4598:
.LBE4601:
.LBB4602:
.LBB4603:
	.loc 25 1076 0
	and	r2, r3, #15
	cmp	r2, #6
	beq	.L1342
	bl	cap_async_endpoint_cap_get_capAEPPtr.isra.56.part.57
.LVL1253:
.L1321:
.LBE4603:
.LBE4602:
.LBB4604:
.LBB4605:
	.loc 25 1623 0
	and	r2, r3, #15
	cmp	r2, #7
	.loc 25 1626 0
	biceq	r3, r3, #1020
	biceq	r0, r3, #3
.LVL1254:
	.loc 25 1623 0
	beq	.L1315
	bl	cap_page_table_cap_get_capPTBasePtr.isra.70.part.71
.LVL1255:
.L1322:
.LBE4605:
.LBE4604:
.LBB4606:
.LBB4607:
	.loc 25 1675 0
	and	r2, r3, #15
	cmp	r2, #9
	.loc 25 1678 0
	biceq	r3, r3, #16320
	biceq	r0, r3, #63
.LVL1256:
	.loc 25 1675 0
	beq	.L1315
	bl	cap_page_directory_cap_get_capPDBasePtr.isra.72.part.73
.LVL1257:
.L1323:
.LBE4607:
.LBE4606:
.LBB4608:
.LBB4609:
	.loc 25 1210 0
	and	r2, r3, #15
	cmp	r2, #10
	.loc 25 1213 0
	biceq	r0, r3, #31
.LVL1258:
	.loc 25 1210 0
	beq	.L1315
	bl	cap_cnode_cap_get_capCNodePtr.isra.30.part.31
.LVL1259:
.L1324:
.LBE4609:
.LBE4608:
.LBB4610:
.LBB4611:
	.loc 25 1235 0
	and	r2, r3, #15
	cmp	r2, #12
.LBE4611:
.LBE4610:
	.loc 28 526 0
	biceq	r3, r3, #508
	biceq	r0, r3, #3
.LVL1260:
.LBB4613:
.LBB4612:
	.loc 25 1235 0
	beq	.L1315
	bl	cap_thread_cap_get_capTCBPtr.isra.37.part.38
.LVL1261:
.L1325:
.LBE4612:
.LBE4613:
.LBB4614:
.LBB4615:
.LBB4616:
.LBB4617:
.LBB4618:
.LBB4619:
	.loc 25 1807 0
	uxtb	r2, r3
	cmp	r2, #46
	ldr	r2, [sp, #20]
.LVL1262:
	bne	.L1352
	.loc 25 1810 0
	and	r3, r3, #16128
	mov	r3, r3, lsr #8
.LBE4619:
.LBE4618:
	.loc 28 90 0
	cmp	r3, #32
	.loc 28 93 0
	andne	r3, r3, #31
	mvnne	r0, #0
.LVL1263:
	addne	r3, r3, #1
	.loc 28 90 0
	mvneq	r0, #31
.LVL1264:
	movne	r0, r0, asl r3
.LBE4617:
.LBE4616:
	.loc 28 107 0
	and	r0, r0, r2
	b	.L1315
.LVL1265:
.L1336:
.LBE4615:
.LBE4614:
.LBB4620:
.LBB4593:
.LBB4591:
.LBB4592:
	.loc 25 1352 0
	and	r2, r3, #15
	cmp	r2, #1
	.loc 25 1355 0
	biceq	r0, r3, #-16777216
.LVL1266:
	biceq	r0, r0, #15
	moveq	r0, r0, asl #8
	.loc 25 1352 0
	beq	.L1315
	bl	cap_small_frame_cap_get_capFBasePtr.isra.64.part.65
.LVL1267:
.L1350:
	bl	generic_frame_cap_get_capFBasePtr.isra.68.part.69
.LVL1268:
.L1352:
	bl	cap_zombie_cap_get_capZombieType.isra.76.part.77
.LVL1269:
.L1351:
	bl	cap_untyped_cap_get_capPtr.isra.33.part.34
.LVL1270:
.L1354:
	.align	2
.L1353:
	.word	.LANCHOR2
	.word	.LC89
.LBE4592:
.LBE4591:
.LBE4593:
.LBE4620:
.LBE4622:
.LBE4624:
	.cfi_endproc
.LFE470:
	.size	provide_cap, .-provide_cap
	.align	2
	.type	create_untypeds_for_region, %function
create_untypeds_for_region:
.LFB478:
	.loc 21 476 0
	.cfi_startproc
	@ args = 4, pretend = 0, frame = 32
	@ frame_needed = 0, uses_anonymous_args = 0
.LVL1271:
	stmfd	sp!, {r4, r5, r6, r7, r8, r9, sl, lr}
.LCFI188:
	.cfi_def_cfa_offset 32
	.cfi_offset 4, -32
	.cfi_offset 5, -28
	.cfi_offset 6, -24
	.cfi_offset 7, -20
	.cfi_offset 8, -16
	.cfi_offset 9, -12
	.cfi_offset 10, -8
	.cfi_offset 14, -4
	sub	sp, sp, #32
.LCFI189:
	.cfi_def_cfa_offset 64
	.loc 21 480 0
	cmp	r2, r3
	.loc 21 476 0
	add	r6, sp, #8
	stmia	sp, {r2, r3}
	mov	r4, r2
.LVL1272:
	mov	r7, r3
.LVL1273:
	stmia	r6, {r0, r1}
	ldr	r8, [sp, #64]
.LBB4641:
.LBB4642:
	.loc 21 442 0
	ldrne	r9, .L1371
.LBE4642:
.LBE4641:
	.loc 21 496 0
	movne	sl, #1
	.loc 21 480 0
	bne	.L1366
	b	.L1364
.LVL1274:
.L1359:
.LBB4656:
.LBB4653:
	.loc 21 448 0
	ldr	r0, .L1371+4
	bl	printf
.LVL1275:
.L1362:
.LBE4653:
.LBE4656:
	.loc 21 496 0
	add	r4, r4, sl, asl r5
.LVL1276:
	.loc 21 480 0
	cmp	r4, r7
	beq	.L1364
.LVL1277:
.L1366:
.LBB4657:
.LBB4658:
	.loc 21 467 0
	rsb	r3, r4, #0
	and	r3, r4, r3
.LBE4658:
.LBE4657:
	.loc 21 482 0
	rsb	r5, r4, r7
.LVL1278:
.LBB4661:
.LBB4659:
	.loc 21 467 0
	clz	r3, r3
.LBE4659:
.LBE4661:
.LBB4662:
.LBB4663:
	.loc 21 459 0
	clz	r5, r5
.LVL1279:
.LBE4663:
.LBE4662:
.LBB4664:
.LBB4660:
	.loc 21 467 0
	rsb	r3, r3, #31
.LBE4660:
.LBE4664:
	.loc 21 482 0
	rsb	r5, r5, #31
.LVL1280:
	cmp	r5, r3
	movcs	r5, r3
.LVL1281:
	.loc 21 492 0
	cmp	r5, #3
	bls	.L1368
.LBB4665:
.LBB4654:
	.loc 21 442 0
	ldr	r2, [r9, #20]
	ldmia	r6, {r0, r1}
	rsb	r2, r8, r2
	add	r3, sp, #16
	.loc 21 443 0
	cmp	r2, #166
	stmia	r3, {r0, r1}
.LVL1282:
	bhi	.L1359
	.loc 21 444 0
	ldr	r1, [r9, #16]
.LVL1283:
	add	r0, r2, #16
	.loc 21 445 0
	add	r2, r1, r2
.LVL1284:
.LBB4643:
.LBB4644:
	.loc 25 814 0
	bics	ip, r5, #31
.LBE4644:
.LBE4643:
.LBB4648:
.LBB4649:
	.loc 11 39 0
	add	ip, r4, #-1879048192
.LBE4649:
.LBE4648:
	.loc 21 445 0
	strb	r5, [r2, #732]
.LVL1285:
	.loc 21 444 0
	str	ip, [r1, r0, asl #2]
.LBB4650:
.LBB4645:
	.loc 25 814 0
	bne	.L1369
	.loc 25 817 0
	tst	r4, #15
	.loc 25 815 0
	and	r1, r5, #31
.LVL1286:
	.loc 25 817 0
	bne	.L1370
.LVL1287:
.LBE4645:
.LBE4650:
	.loc 21 446 0
	add	ip, sp, #32
.LBB4651:
.LBB4646:
	.loc 25 818 0
	bic	r2, r4, #15
	.loc 25 821 0
	orr	r2, r2, #2
.LVL1288:
.LBE4646:
	.loc 25 823 0
	str	r1, [sp, #28]
	str	r2, [sp, #24]
.LBE4651:
	.loc 21 446 0
	ldmia	r3, {r0, r1}
.LVL1289:
	ldmdb	ip, {r2, r3}
.LVL1290:
	bl	provide_cap
.LVL1291:
.LBE4654:
.LBE4665:
	.loc 21 493 0
	cmp	r0, #0
	bne	.L1362
.LVL1292:
.L1357:
	.loc 21 499 0
	add	sp, sp, #32
	ldmfd	sp!, {r4, r5, r6, r7, r8, r9, sl, pc}
.L1364:
	.loc 21 498 0
	mov	r0, #1
	b	.L1357
.LVL1293:
.L1368:
.LBB4666:
.LBB4667:
	.loc 21 492 0
	ldr	r0, .L1371+8
	ldr	r1, .L1371+12
	mov	r2, #492
	ldr	r3, .L1371+16
	bl	_assert_fail
.LVL1294:
.L1370:
.LBE4667:
.LBE4666:
.LBB4668:
.LBB4655:
.LBB4652:
.LBB4647:
	.loc 25 817 0
	ldr	r0, .L1371+20
.LVL1295:
	ldr	r1, .L1371+24
.LVL1296:
	ldr	r2, .L1371+28
	ldr	r3, .L1371+32
	bl	_assert_fail
.LVL1297:
.L1369:
	.loc 25 814 0
	ldr	r0, .L1371+36
.LVL1298:
	ldr	r1, .L1371+24
	ldr	r2, .L1371+40
	ldr	r3, .L1371+32
	bl	_assert_fail
.LVL1299:
.L1372:
	.align	2
.L1371:
	.word	.LANCHOR2
	.word	.LC93
	.word	.LC90
	.word	.LC51
	.word	.LANCHOR3+3500
	.word	.LC92
	.word	.LC5
	.word	817
	.word	.LANCHOR3+756
	.word	.LC91
	.word	814
.LBE4647:
.LBE4652:
.LBE4655:
.LBE4668:
	.cfi_endproc
.LFE478:
	.size	create_untypeds_for_region, .-create_untypeds_for_region
	.align	2
	.global	create_untypeds
	.type	create_untypeds, %function
create_untypeds:
.LFB479:
	.loc 21 503 0
	.cfi_startproc
	@ args = 0, pretend = 0, frame = 24
	@ frame_needed = 0, uses_anonymous_args = 0
	stmfd	sp!, {r4, r5, r6, r7, r8, sl, lr}
.LCFI190:
	.cfi_def_cfa_offset 28
	.cfi_offset 4, -28
	.cfi_offset 5, -24
	.cfi_offset 6, -20
	.cfi_offset 7, -16
	.cfi_offset 8, -12
	.cfi_offset 10, -8
	.cfi_offset 14, -4
	sub	sp, sp, #36
.LCFI191:
	.cfi_def_cfa_offset 64
	.loc 21 509 0
	ldr	r7, .L1382
	.loc 21 503 0
	add	ip, sp, #8
	add	r4, sp, #16
	.loc 21 509 0
	ldr	r8, [r7, #20]
.LVL1300:
	.loc 21 503 0
	stmia	r4, {r0, r1}
	.loc 21 512 0
	str	r8, [sp, #0]
	.loc 21 503 0
	stmia	ip, {r2, r3}
	.loc 21 512 0
	ldmia	r4, {r0, r1}
	ldmia	ip, {r2, r3}
	bl	create_untypeds_for_region
.LVL1301:
	cmp	r0, #0
	beq	.L1376
	mov	r5, #0
	.loc 21 519 0
	mov	sl, r5
	add	r6, sp, #24
.L1374:
	.loc 21 518 0
	add	r3, r7, r5
	.loc 21 520 0
	str	r8, [sp, #0]
	.loc 21 518 0
	ldmia	r3, {r0, r1}
	.loc 21 519 0
	str	sl, [r7, r5]
	str	sl, [r3, #4]
	.loc 21 518 0
	stmia	r6, {r0, r1}
	.loc 21 520 0
	ldmia	r4, {r0, r1}
	ldmia	r6, {r2, r3}
	bl	create_untypeds_for_region
.LVL1302:
	add	r5, r5, #8
	.loc 21 518 0
	ldr	r3, .L1382
	.loc 21 520 0
	cmp	r0, #0
	beq	.L1376
	.loc 21 517 0
	cmp	r5, #16
	bne	.L1374
	.loc 21 526 0
	ldr	r2, [r3, #16]
	.loc 21 529 0
	mov	r0, #1
	.loc 21 525 0
	ldr	r3, [r3, #20]
.LVL1303:
	.loc 21 526 0
	str	r8, [r2, #56]
	str	r3, [r2, #60]
.LVL1304:
.L1375:
	.loc 21 530 0
	add	sp, sp, #36
	ldmfd	sp!, {r4, r5, r6, r7, r8, sl, pc}
.L1376:
	.loc 21 513 0
	mov	r0, #0
	b	.L1375
.L1383:
	.align	2
.L1382:
	.word	.LANCHOR2
	.cfi_endproc
.LFE479:
	.size	create_untypeds, .-create_untypeds
	.text
	.align	2
	.type	print_fault, %function
print_fault:
.LFB491:
	.file 36 "/home/zj/seL4/myseL4/kernel/src/kernel/faulthandler.c"
	.loc 36 72 0
	.cfi_startproc
	@ args = 0, pretend = 0, frame = 8
	@ frame_needed = 0, uses_anonymous_args = 0
	@ link register save eliminated.
	sub	sp, sp, #8
.LCFI192:
	.cfi_def_cfa_offset 8
	.loc 36 72 0
	add	r3, sp, #8
	stmdb	r3, {r0, r1}
	ldr	r3, [sp, #0]
	ldr	r2, [sp, #4]
.LBB4687:
.LBB4688:
	.loc 25 410 0
	and	r0, r3, #7
.LBE4688:
.LBE4687:
	.loc 36 73 0
	cmp	r0, #4
	ldrls	pc, [pc, r0, asl #2]
	b	.L1385
.L1391:
	.word	.L1386
	.word	.L1387
	.word	.L1388
	.word	.L1389
	.word	.L1390
.L1390:
.LVL1305:
	.loc 36 93 0
	mov	r1, r2
	ldr	r0, .L1396
	mov	r2, r3, lsr #3
.LVL1306:
	.loc 36 101 0
	add	sp, sp, #8
	.loc 36 93 0
	b	printf
.LVL1307:
.L1385:
	.loc 36 98 0
	ldr	r0, .L1396+4
	.loc 36 101 0
	add	sp, sp, #8
	.loc 36 98 0
	b	printf
.LVL1308:
.L1386:
	.loc 36 75 0
	ldr	r0, .L1396+8
	.loc 36 101 0
	add	sp, sp, #8
	.loc 36 75 0
	b	printf
.LVL1309:
.L1387:
	.loc 36 78 0
	ldr	r0, .L1396+12
	cmp	r3, #0
	ldr	r1, .L1396+16
	movge	r1, r0
	ldr	r0, .L1396+20
	.loc 36 101 0
	add	sp, sp, #8
	.loc 36 78 0
	b	printf
.LVL1310:
.L1388:
	.loc 36 83 0
	ldr	r0, .L1396+24
	ldr	r1, .L1396+28
	tst	r3, #131072
	moveq	r1, r0
	mov	r3, r3, lsr #18
.LVL1311:
	ldr	r0, .L1396+32
	.loc 36 101 0
	add	sp, sp, #8
	.loc 36 83 0
	b	printf
.LVL1312:
.L1389:
	.loc 36 89 0
	mov	r1, r2
	ldr	r0, .L1396+36
	.loc 36 101 0
	add	sp, sp, #8
	.loc 36 89 0
	b	printf
.LVL1313:
.L1397:
	.align	2
.L1396:
	.word	.LC102
	.word	.LC103
	.word	.LC98
	.word	.LC95
	.word	.LC94
	.word	.LC99
	.word	.LC97
	.word	.LC96
	.word	.LC100
	.word	.LC101
	.cfi_endproc
.LFE491:
	.size	print_fault, .-print_fault
	.section	.boot.text
	.align	2
	.global	alloc_region
	.type	alloc_region, %function
alloc_region:
.LFB462:
	.loc 21 53 0
	.cfi_startproc
	@ args = 0, pretend = 0, frame = 48
	@ frame_needed = 0, uses_anonymous_args = 0
.LVL1314:
	mov	r2, r0
	.loc 21 74 0
	mov	r0, #1
.LVL1315:
	.loc 21 53 0
	stmfd	sp!, {r4, r5, r6, r7, r8, r9, sl, fp, lr}
.LCFI193:
	.cfi_def_cfa_offset 36
	.cfi_offset 4, -36
	.cfi_offset 5, -32
	.cfi_offset 6, -28
	.cfi_offset 7, -24
	.cfi_offset 8, -20
	.cfi_offset 9, -16
	.cfi_offset 10, -12
	.cfi_offset 11, -8
	.cfi_offset 14, -4
	.loc 21 74 0
	mov	r3, #0
	mov	r0, r0, asl r2
	ldr	r6, .L1414
	.loc 21 53 0
	sub	sp, sp, #52
.LCFI194:
	.cfi_def_cfa_offset 88
	.loc 21 56 0
	mov	r7, r3
	mov	fp, r3
	.loc 21 55 0
	mov	r9, r3
	.loc 21 69 0
	mov	r5, r3
	.loc 21 57 0
	str	r3, [sp, #12]
	str	r3, [sp, #8]
	.loc 21 58 0
	str	r3, [sp, #20]
	str	r3, [sp, #16]
.LVL1316:
.L1403:
	.loc 21 71 0
	mov	ip, r6
	ldr	lr, [ip, r3]!
	sub	r1, lr, #1
	.loc 21 72 0
	ldr	r4, [ip, #4]
	.loc 21 71 0
	mov	r1, r1, lsr r2
	.loc 21 72 0
	mov	ip, r4, lsr r2
	.loc 21 71 0
	add	r1, r1, #1
	.loc 21 72 0
	mov	ip, ip, asl r2
	.loc 21 71 0
	mov	r1, r1, asl r2
	.loc 21 72 0
	rsb	r8, ip, r4
	.loc 21 71 0
	rsb	sl, lr, r1
	cmp	sl, r8
.LVL1317:
	.loc 21 74 0
	addcc	ip, r1, r0
.LVL1318:
	.loc 21 77 0
	rsbcs	r1, r0, ip
.LVL1319:
	.loc 21 79 0
	cmp	ip, r1
	bls	.L1401
	.loc 21 79 0 is_stmt 0 discriminator 1
	cmp	lr, r1
	bhi	.L1401
	.loc 21 80 0 is_stmt 1
	cmp	r4, ip
	bcs	.L1411
.L1401:
.LVL1320:
	.loc 21 69 0
	add	r5, r5, #1
.LVL1321:
	cmp	r5, #2
	add	r3, r3, #8
	bne	.L1403
.LVL1322:
	.loc 21 103 0
	cmp	fp, r7
	beq	.L1412
	.loc 21 108 0
	add	r2, r6, r9, asl #3
.LVL1323:
	.loc 21 110 0
	ldr	ip, [sp, #16]
.LVL1324:
	add	lr, sp, #48
	ldr	sl, [sp, #20]
	.loc 21 108 0
	mov	r3, #0
.LVL1325:
	.loc 21 110 0
	str	ip, [sp, #44]
	.loc 21 108 0
	str	r3, [r2, #4]
	.loc 21 110 0
	str	sl, [sp, #40]
	ldmdb	lr, {r0, r1}
.LVL1326:
	.loc 21 108 0
	str	r3, [r6, r9, asl #3]
	.loc 21 110 0
	bl	insert_region
.LVL1327:
	.loc 21 111 0
	add	r3, sp, #32
	ldr	r2, [sp, #12]
	ldr	r8, [sp, #8]
	str	r2, [sp, #32]
	str	r8, [sp, #36]
	ldmia	r3, {r0, r1}
	bl	insert_region
.LVL1328:
	cmp	r0, #0
	beq	.L1413
.LVL1329:
.L1405:
	.loc 21 116 0
	mov	r0, r7
	add	sp, sp, #52
	ldmfd	sp!, {r4, r5, r6, r7, r8, r9, sl, fp, pc}
.LVL1330:
.L1411:
	.loc 21 82 0
	rsb	sl, lr, r1
	rsb	r8, ip, r4
	cmp	sl, r8
	strcc	r4, [sp, #4]
	strcc	lr, [sp, #0]
	movcc	r4, r1
	movcc	lr, ip
	strcs	r1, [sp, #4]
	strcs	ip, [sp, #0]
.LVL1331:
	.loc 21 93 0
	cmp	fp, r7
	beq	.L1409
.LVL1332:
.LBB4689:
.LBB4690:
	.loc 21 48 0 discriminator 1
	ldr	r8, [sp, #0]
.LBE4690:
.LBE4689:
.LBB4692:
.LBB4693:
	ldr	sl, [sp, #8]
.LBE4693:
.LBE4692:
.LBB4695:
.LBB4691:
	rsb	r8, r8, r4
	str	r8, [sp, #24]
.LVL1333:
.LBE4691:
.LBE4695:
.LBB4696:
.LBB4694:
	ldr	r8, [sp, #12]
	rsb	sl, r8, sl
.LVL1334:
.LBE4694:
.LBE4696:
	.loc 21 93 0 discriminator 1
	ldr	r8, [sp, #24]
	cmp	r8, sl
	bcc	.L1408
.LVL1335:
	.loc 21 94 0
	bne	.L1401
.LVL1336:
.LBB4697:
.LBB4698:
	.loc 21 48 0
	ldr	sl, [sp, #4]
.LBE4698:
.LBE4697:
.LBB4700:
.LBB4701:
	ldr	r8, [sp, #16]
.LBE4701:
.LBE4700:
.LBB4703:
.LBB4699:
	rsb	sl, lr, sl
	str	sl, [sp, #24]
.LBE4699:
.LBE4703:
.LBB4704:
.LBB4702:
	ldr	sl, [sp, #20]
	rsb	r8, sl, r8
.LBE4702:
.LBE4704:
	.loc 21 95 0
	ldr	sl, [sp, #24]
	cmp	sl, r8
	bcs	.L1401
.LVL1337:
.L1409:
	.loc 21 98 0
	ldr	r7, [sp, #4]
.LVL1338:
	.loc 21 97 0
	ldr	r8, [sp, #0]
	.loc 21 98 0
	str	r7, [sp, #16]
	str	lr, [sp, #20]
	.loc 21 97 0
	str	r4, [sp, #8]
	str	r8, [sp, #12]
	.loc 21 95 0
	mov	fp, ip
.LVL1339:
	mov	r7, r1
	mov	r9, r5
	b	.L1401
.LVL1340:
.L1413:
	.loc 21 112 0
	ldr	sl, [sp, #12]
.LVL1341:
	ldr	r0, .L1414+4
	rsb	r1, sl, r8
	bl	printf
.LVL1342:
	b	.L1405
.LVL1343:
.L1412:
	.loc 21 104 0
	ldr	r0, .L1414+8
	bl	printf
.LVL1344:
	.loc 21 105 0
	mov	r7, #0
.LVL1345:
	b	.L1405
.LVL1346:
.L1408:
	.loc 21 98 0
	ldr	sl, [sp, #4]
	str	lr, [sp, #20]
	.loc 21 97 0
	ldr	lr, [sp, #0]
.LVL1347:
	.loc 21 98 0
	str	sl, [sp, #16]
	.loc 21 97 0
	str	r4, [sp, #8]
	str	lr, [sp, #12]
	.loc 21 93 0
	mov	fp, ip
.LVL1348:
	mov	r7, r1
.LVL1349:
	mov	r9, r5
	b	.L1401
.L1415:
	.align	2
.L1414:
	.word	.LANCHOR2
	.word	.LC105
	.word	.LC104
	.cfi_endproc
.LFE462:
	.size	alloc_region, .-alloc_region
	.text
	.align	2
	.global	_fail
	.type	_fail, %function
_fail:
.LFB458:
	.loc 24 21 0
	.cfi_startproc
	@ Volatile: function does not return.
	@ args = 0, pretend = 0, frame = 0
	@ frame_needed = 0, uses_anonymous_args = 0
.LVL1350:
	str	lr, [sp, #-4]!
.LCFI195:
	.cfi_def_cfa_offset 4
	.cfi_offset 14, -4
	sub	sp, sp, #12
.LCFI196:
	.cfi_def_cfa_offset 16
	.loc 24 22 0
	str	r0, [sp, #0]
	ldr	r0, .L1417
.LVL1351:
	bl	printf
.LVL1352:
	.loc 24 29 0
	bl	halt
.LVL1353:
.L1418:
	.align	2
.L1417:
	.word	.LC106
	.cfi_endproc
.LFE458:
	.size	_fail, .-_fail
	.align	2
	.global	setMRs_syscall_error
	.type	setMRs_syscall_error, %function
setMRs_syscall_error:
.LFB455:
	.loc 20 137 0
	.cfi_startproc
	@ args = 0, pretend = 0, frame = 8
	@ frame_needed = 0, uses_anonymous_args = 0
.LVL1354:
	.loc 20 138 0
	ldr	r2, .L1437
	.loc 20 137 0
	stmfd	sp!, {r4, r5, r6, lr}
.LCFI197:
	.cfi_def_cfa_offset 16
	.cfi_offset 4, -16
	.cfi_offset 5, -12
	.cfi_offset 6, -8
	.cfi_offset 14, -4
	mov	ip, r0
	.loc 20 138 0
	ldr	r3, [r2, #24]
	.loc 20 137 0
	sub	sp, sp, #8
.LCFI198:
	.cfi_def_cfa_offset 24
	.loc 20 138 0
	sub	r3, r3, #1
	.loc 20 137 0
	mov	r4, r1
	.loc 20 138 0
	cmp	r3, #9
	ldrls	pc, [pc, r3, asl #2]
	b	.L1420
.L1427:
	.word	.L1421
	.word	.L1422
	.word	.L1433
	.word	.L1424
	.word	.L1433
	.word	.L1425
	.word	.L1433
	.word	.L1433
	.word	.L1433
	.word	.L1426
.L1425:
.LVL1355:
	ldr	r3, .L1437+4
	.loc 20 160 0
	ldr	r2, [r2, #20]
	add	r6, sp, #8
	ldmia	r3, {r0, r1}
.LVL1356:
	adds	r3, r2, #0
	movne	r3, #1
.LBB4829:
.LBB4830:
.LBB4831:
	.loc 9 21 0
	str	r3, [ip, #8]
.LVL1357:
.LBE4831:
.LBE4830:
.LBE4829:
.LBB4832:
.LBB4833:
.LBB4834:
.LBB4835:
	.loc 25 2010 0
	and	r3, r0, #3
.LBE4835:
.LBE4834:
	.loc 20 42 0
	add	r5, r3, #1
	.loc 20 44 0
	cmp	r3, #2
	mov	r2, r0
.LVL1358:
	stmdb	r6, {r0, r1}
.LBB4836:
.LBB4837:
.LBB4838:
	.loc 9 21 0
	str	r5, [ip, #12]
.LBE4838:
.LBE4837:
.LBE4836:
	.loc 20 44 0
	beq	.L1430
	cmp	r3, #3
	beq	.L1431
	cmp	r3, #1
	.loc 20 46 0
	movne	r0, #2
	.loc 20 44 0
.LVL1359:
.LBB4839:
.LBB4840:
	.loc 25 2049 0
	andeq	r2, r2, #252
.LVL1360:
.LBE4840:
.LBE4839:
.LBB4842:
.LBB4843:
.LBB4844:
	.loc 20 49 0
	moveq	r0, #3
.LBE4844:
.LBE4843:
.LBE4842:
.LBB4847:
.LBB4841:
	.loc 25 2049 0
	moveq	r2, r2, lsr #2
.LVL1361:
.LBE4841:
.LBE4847:
.LBB4848:
.LBB4846:
.LBB4845:
	.loc 9 21 0
	streq	r2, [ip, #16]
	b	.L1423
.LVL1362:
.L1420:
.LBE4845:
.LBE4846:
.LBE4848:
.LBE4833:
.LBE4832:
	.loc 20 173 0
	ldr	r0, .L1437+8
.LVL1363:
	ldr	r1, .L1437+12
.LVL1364:
	mov	r2, #173
	ldr	r3, .L1437+16
	bl	_fail
.LVL1365:
.L1421:
.LBB4887:
.LBB4888:
.LBB4889:
	.loc 9 21 0
	ldr	r3, [r2, #0]
.LBE4889:
.LBE4888:
.LBE4887:
	.loc 20 140 0
	mov	r0, #1
.LVL1366:
.LBB4892:
.LBB4891:
.LBB4890:
	.loc 9 21 0
	str	r3, [ip, #8]
.LVL1367:
.L1423:
.LBE4890:
.LBE4891:
.LBE4892:
	.loc 20 175 0
	add	sp, sp, #8
	ldmfd	sp!, {r4, r5, r6, pc}
.LVL1368:
.L1422:
.LBB4893:
.LBB4894:
.LBB4895:
	.loc 9 21 0
	ldr	r3, [r2, #4]
.LBE4895:
.LBE4894:
.LBE4893:
	.loc 20 144 0
	mov	r0, #1
.LVL1369:
.LBB4898:
.LBB4897:
.LBB4896:
	.loc 9 21 0
	str	r3, [ip, #8]
.LBE4896:
.LBE4897:
.LBE4898:
	.loc 20 144 0
	b	.L1423
.LVL1370:
.L1433:
	.loc 20 148 0
	mov	r0, #0
.LVL1371:
	b	.L1423
.LVL1372:
.L1424:
.LBB4899:
.LBB4900:
.LBB4901:
	.loc 9 21 0
	ldr	r3, [r2, #12]
.LBE4901:
.LBE4900:
.LBE4899:
.LBB4904:
.LBB4905:
.LBB4906:
	ldr	r1, [r2, #8]
.LVL1373:
.LBE4906:
.LBE4905:
.LBE4904:
.LBB4909:
.LBB4903:
.LBB4902:
	str	r3, [r0, #12]
.LBE4902:
.LBE4903:
.LBE4909:
.LBB4910:
.LBB4908:
.LBB4907:
	str	r1, [r0, #8]
.LVL1374:
.LBE4907:
.LBE4908:
.LBE4910:
	.loc 20 153 0
	mov	r0, #2
.LVL1375:
	b	.L1423
.LVL1376:
.L1426:
.LBB4911:
.LBB4912:
.LBB4913:
	.loc 9 21 0
	ldr	r3, [r2, #16]
.LBE4913:
.LBE4912:
.LBE4911:
	.loc 20 170 0
	mov	r0, #1
.LVL1377:
.LBB4916:
.LBB4915:
.LBB4914:
	.loc 9 21 0
	str	r3, [ip, #8]
.LBE4914:
.LBE4915:
.LBE4916:
